(dp0
VvoGroup
p1
V
p2
sVServer
p3
Vcmsweb.cern.ch
p4
sVinstance
p5
Vprod
p6
sVRequestName
p7
V220802_154847:jodedra_crab__SingleMuon_Run2022C-PromptReco-v1_MINIAODBPeak
p8
sVvoRole
p9
g2
sVPort
p10
g2
s.