ccopy_reg
_reconstructor
p0
(cFWCore.ParameterSet.Config
Process
p1
c__builtin__
object
p2
Ntp3
Rp4
(dp5
V_Process__name
p6
VNano
p7
sV_Process__filters
p8
(dp9
sV_Process__producers
p10
(dp11
VMEtoEDMConverter
p12
g0
(cFWCore.ParameterSet.Modules
EDProducer
p13
g2
Ntp14
Rp15
(dp16
V_TypedParameterizable__type
p17
g12
sV_Parameterizable__parameterNames
p18
(lp19
VName
p20
aVVerbosity
p21
aVFrequency
p22
aVMEPathToSave
p23
asV_isFrozen
p24
I00
sV_Parameterizable__validator
p25
Nsg20
g0
(cFWCore.ParameterSet.Types
string
p26
g2
Ntp27
Rp28
(dp29
g24
I00
sV_ParameterTypeBase__isTracked
p30
I00
sV_isModified
p31
I00
sV_value
p32
g12
sbsg31
I00
sg21
g0
(cFWCore.ParameterSet.Types
int32
p33
g2
Ntp34
Rp35
(dp36
g24
I00
sg30
I00
sg31
I00
sg32
I0
sbsg22
g0
(g33
g2
Ntp37
Rp38
(dp39
g24
I00
sg30
I00
sg31
I00
sg32
I50
sbsg23
g0
(g26
g2
Ntp40
Rp41
(dp42
g24
I00
sg30
I00
sg31
I00
sg32
V
p43
sbsV_filename
p44
V/cvmfs/cms.cern.ch/slc7_amd64_gcc10/cms/cmssw/CMSSW_12_4_3/python/DQMServices/Components/MEtoEDMConverter_cfi.py
p45
sV_lineNumber
p46
I3
sV_Labelable__label
p47
g12
sbssV_Process__switchproducers
p48
(dp49
sV_Process__source
p50
g0
(cFWCore.ParameterSet.Modules
Source
p51
g2
Ntp52
Rp53
(dp54
g17
VPoolSource
p55
sg18
(lp56
VfileNames
p57
asg24
I00
sg25
Nsg57
g0
(cFWCore.ParameterSet.Types
vstring
p58
c__builtin__
list
p59
(lp60
V/store/data/Run2022C/ParkingSingleMuon0/MINIAOD/PromptReco-v1/000/356/488/00000/c0d07d9d-fa5c-4de2-bf95-5415d485ae0f.root
p61
atp62
Rp63
(dp64
g24
I00
sg30
I00
sg31
I00
sV_nPerLine
p65
I1
sbsg31
I00
sg44
V/cvmfs/cms.cern.ch/slc7_amd64_gcc10/cms/cmssw/CMSSW_12_4_3/python/FWCore/ParameterSet/Modules.py
p66
sg46
I195
sbsV_Process__looper
p67
NsV_Process__subProcesses
p68
(lp69
sV_Process__schedule
p70
NsV_Process__analyzers
p71
(dp72
Vnano
p73
g0
(cFWCore.ParameterSet.Modules
EDAnalyzer
p74
g2
Ntp75
Rp76
(dp77
g17
VNanoAnalyzerSingleMu
p78
sg18
(lp79
Velectrons
p80
aVvertices
p81
aVpackedpfcandidates
p82
aVHLT
p83
aVtriggerobjects
p84
asg24
I00
sg25
Nsg80
g0
(cFWCore.ParameterSet.Types
InputTag
p85
g2
Ntp86
Rp87
(dp88
g24
I00
sg30
I01
sg31
I00
sV_InputTag__moduleLabel
p89
VslimmedElectrons
p90
sV_InputTag__productInstance
p91
g43
sV_InputTag__processName
p92
g43
sbsg31
I00
sg81
g0
(g85
g2
Ntp93
Rp94
(dp95
g24
I00
sg30
I01
sg31
I00
sg89
VofflineSlimmedPrimaryVertices
p96
sg91
g43
sg92
g43
sbsg82
g0
(g85
g2
Ntp97
Rp98
(dp99
g24
I00
sg30
I01
sg31
I00
sg89
VpackedPFCandidates
p100
sg91
g43
sg92
g43
sbsg83
g0
(g85
g2
Ntp101
Rp102
(dp103
g24
I00
sg30
I01
sg31
I00
sg89
VTriggerResults
p104
sg91
g43
sg92
g83
sbsg84
g0
(g85
g2
Ntp105
Rp106
(dp107
g24
I00
sg30
I01
sg31
I00
sg89
VslimmedPatTrigger
p108
sg91
g43
sg92
g43
sbsg44
V/eos/home-j/jodedra/yutadi-electron/CMSSW_12_4_3/src/EXOVVNtuplizerRunII/Ntuplizer/nanoanalyzercrab_cfg_22_SingleMu.py
p109
sg46
I159
sg47
g73
sbssV_Process__outputmodules
p110
(dp111
sV_Process__paths
p112
g0
(cFWCore.ParameterSet.DictTypes
SortedKeysDict
p113
c__builtin__
dict
p114
(dp115
Vp
p116
g0
(cFWCore.ParameterSet.SequenceTypes
Path
p117
g2
Ntp118
Rp119
(dp120
g24
I00
sV_seq
p121
g0
(cFWCore.ParameterSet.SequenceTypes
_SequenceCollection
p122
g2
Ntp123
Rp124
(dp125
V_collection
p126
(lp127
g76
asbsg31
I00
sV_tasks
p128
g0
(cFWCore.ParameterSet.OrderedSet
OrderedSet
p129
g2
Ntp130
Rp131
(dp132
Vend
p133
(lp134
Nag134
ag134
asVmap
p135
(dp136
sbsg47
g116
sbstp137
Rp138
(dp139
Vlist
p140
(lp141
g116
asbsV_Process__endpaths
p142
g0
(g113
g114
(dp143
tp144
Rp145
(dp146
g140
(lp147
sbsV_Process__finalpaths
p148
g0
(g113
g114
(dp149
tp150
Rp151
(dp152
g140
(lp153
sbsV_Process__sequences
p154
(dp155
VendOfProcess
p156
g0
(cFWCore.ParameterSet.SequenceTypes
Sequence
p157
g2
Ntp158
Rp159
(dp160
g24
I00
sg121
g0
(g122
g2
Ntp161
Rp162
(dp163
g126
(lp164
g15
asbsg31
I00
sg128
g0
(g129
g2
Ntp165
Rp166
(dp167
g133
(lp168
Nag168
ag168
asg135
(dp169
sbsg47
g156
sbssV_Process__tasks
p170
(dp171
sV_Process__conditionaltasks
p172
(dp173
sV_Process__services
p174
(dp175
VMessageLogger
p176
g0
(cFWCore.ParameterSet.Modules
Service
p177
g2
Ntp178
Rp179
(dp180
g17
g176
sg18
(lp181
VsuppressWarning
p182
aVsuppressFwkInfo
p183
aVsuppressInfo
p184
aVsuppressDebug
p185
aVdebugModules
p186
aVcout
p187
aVdefault
p188
aVcerr
p189
aVfiles
p190
asg24
I00
sg25
g0
(cFWCore.ParameterSet.Types
_OptionalParameter
p191
g2
Ntp192
Rp193
(dp194
g24
I00
sg30
I00
sg31
I00
sV_ProxyParameter__type
p195
g0
(cFWCore.ParameterSet.Types
_PSetTemplate
p196
g2
Ntp197
Rp198
(dp199
V_pset
p200
g0
(cFWCore.ParameterSet.Types
PSet
p201
g2
Ntp202
Rp203
(dp204
g24
I00
sg30
I01
sg31
I00
sg18
(lp205
VreportEvery
p206
aVlimit
p207
aVtimespan
p208
asg25
Nsg206
g0
(g33
g2
Ntp209
Rp210
(dp211
g24
I00
sg30
I00
sg31
I00
sg32
I1
sbsg207
g0
(g191
g2
Ntp212
Rp213
(dp214
g24
I00
sg30
I00
sg31
I00
sg195
g33
sV_ProxyParameter__value
p215
Nsbsg208
g0
(g191
g2
Ntp216
Rp217
(dp218
g24
I00
sg30
I00
sg31
I00
sg195
g33
sg215
NsbsbsV_PSetTemplate__value
p219
Nsbsg215
Nsbsg182
g0
(g58
g59
(lp220
tp221
Rp222
(dp223
g24
I00
sg30
I00
sg31
I00
sg65
I1
sbsg31
I00
sg183
g0
(g58
g59
(lp224
tp225
Rp226
(dp227
g24
I00
sg30
I00
sg31
I00
sg65
I1
sbsg184
g0
(g58
g59
(lp228
tp229
Rp230
(dp231
g24
I00
sg30
I00
sg31
I00
sg65
I1
sbsg185
g0
(g58
g59
(lp232
tp233
Rp234
(dp235
g24
I00
sg30
I00
sg31
I00
sg65
I1
sbsg186
g0
(g58
g59
(lp236
tp237
Rp238
(dp239
g24
I00
sg30
I00
sg31
I00
sg65
I1
sbsg187
g0
(g201
g2
Ntp240
Rp241
(dp242
g24
I00
sg30
I00
sg31
I00
sg18
(lp243
VnoLineBreaks
p244
aVnoTimeStamps
p245
aVlineLength
p246
aVthreshold
p247
aVstatisticsThreshold
p248
aVenableStatistics
p249
aVresetStatistics
p250
aVenable
p251
asg25
g193
sg244
g0
(g191
g2
Ntp252
Rp253
(dp254
g24
I00
sg30
I00
sg31
I00
sg195
cFWCore.ParameterSet.Types
bool
p255
sg215
Nsbsg245
g0
(g191
g2
Ntp256
Rp257
(dp258
g24
I00
sg30
I00
sg31
I00
sg195
g255
sg215
Nsbsg246
g0
(g191
g2
Ntp259
Rp260
(dp261
g24
I00
sg30
I00
sg31
I00
sg195
g33
sg215
Nsbsg247
g0
(g191
g2
Ntp262
Rp263
(dp264
g24
I00
sg30
I00
sg31
I00
sg195
g26
sg215
Nsbsg248
g0
(g191
g2
Ntp265
Rp266
(dp267
g24
I00
sg30
I00
sg31
I00
sg195
g26
sg215
Nsbsg249
g0
(g255
g2
Ntp268
Rp269
(dp270
g24
I00
sg30
I00
sg31
I00
sg32
I00
sbsg250
g0
(g255
g2
Ntp271
Rp272
(dp273
g24
I00
sg30
I00
sg31
I00
sg32
I00
sbsg251
g0
(g255
g2
Ntp274
Rp275
(dp276
g24
I00
sg30
I00
sg31
I00
sg32
I00
sbsbsg188
g0
(g201
g2
Ntp277
Rp278
(dp279
g24
I00
sg30
I00
sg31
I00
sg18
(lp280
g206
ag207
ag208
ag244
ag245
ag246
ag247
ag248
asg25
g193
sg206
g0
(g33
g2
Ntp281
Rp282
(dp283
g24
I00
sg30
I00
sg31
I00
sg32
I1
sbsg207
g0
(g191
g2
Ntp284
Rp285
(dp286
g24
I00
sg30
I00
sg31
I00
sg195
g33
sg215
Nsbsg208
g0
(g191
g2
Ntp287
Rp288
(dp289
g24
I00
sg30
I00
sg31
I00
sg195
g33
sg215
Nsbsg244
g0
(g255
g2
Ntp290
Rp291
(dp292
g24
I00
sg30
I00
sg31
I00
sg32
I00
sbsg245
g0
(g255
g2
Ntp293
Rp294
(dp295
g24
I00
sg30
I00
sg31
I00
sg32
I00
sbsg246
g0
(g33
g2
Ntp296
Rp297
(dp298
g24
I00
sg30
I00
sg31
I00
sg32
I80
sbsg247
g0
(g26
g2
Ntp299
Rp300
(dp301
g24
I00
sg30
I00
sg31
I00
sg32
VINFO
p302
sbsg248
g0
(g26
g2
Ntp303
Rp304
(dp305
g24
I00
sg30
I00
sg31
I00
sg32
g302
sbsbsg189
g0
(g201
g2
Ntp306
Rp307
(dp308
g24
I00
sg30
I00
sg31
I01
sg18
(lp309
g244
ag245
ag246
ag247
ag248
ag251
ag249
ag250
ag302
aVFwkReport
p310
ag188
aVRoot_NoDictionary
p311
aVFwkSummary
p312
asg25
g193
sg244
g0
(g191
g2
Ntp313
Rp314
(dp315
g24
I00
sg30
I00
sg31
I00
sg195
g255
sg215
Nsbsg245
g0
(g255
g2
Ntp316
Rp317
(dp318
g24
I00
sg30
I00
sg31
I00
sg32
I00
sbsg246
g0
(g191
g2
Ntp319
Rp320
(dp321
g24
I00
sg30
I00
sg31
I00
sg195
g33
sg215
Nsbsg247
g0
(g26
g2
Ntp322
Rp323
(dp324
g24
I00
sg30
I00
sg31
I00
sg32
g302
sbsg248
g0
(g26
g2
Ntp325
Rp326
(dp327
g24
I00
sg30
I00
sg31
I00
sg32
VWARNING
p328
sbsg251
g0
(g255
g2
Ntp329
Rp330
(dp331
g24
I00
sg30
I00
sg31
I00
sg32
I01
sbsg249
g0
(g255
g2
Ntp332
Rp333
(dp334
g24
I00
sg30
I00
sg31
I00
sg32
I01
sbsg250
g0
(g255
g2
Ntp335
Rp336
(dp337
g24
I00
sg30
I00
sg31
I00
sg32
I00
sbsg302
g0
(g201
g2
Ntp338
Rp339
(dp340
g24
I00
sg30
I00
sg31
I00
sg18
(lp341
g207
asg25
Nsg207
g0
(g33
g2
Ntp342
Rp343
(dp344
g24
I00
sg30
I00
sg31
I00
sg32
I0
sbsbsg310
g0
(g201
g2
Ntp345
Rp346
(dp347
g24
I00
sg30
I00
sg31
I01
sg18
(lp348
g206
ag207
asg25
Nsg206
g0
(g33
g2
Ntp349
Rp350
(dp351
g24
I00
sg30
I00
sg31
I01
sg32
I1000
sbsg207
g0
(g33
g2
Ntp352
Rp353
(dp354
g24
I00
sg30
I00
sg31
I00
sg32
I10000000
sbsbsg188
g0
(g201
g2
Ntp355
Rp356
(dp357
g24
I00
sg30
I00
sg31
I00
sg18
(lp358
g207
asg25
Nsg207
g0
(g33
g2
Ntp359
Rp360
(dp361
g24
I00
sg30
I00
sg31
I00
sg32
I10000000
sbsbsg311
g0
(g201
g2
Ntp362
Rp363
(dp364
g24
I00
sg30
I00
sg31
I00
sg18
(lp365
g207
asg25
Nsg207
g0
(g33
g2
Ntp366
Rp367
(dp368
g24
I00
sg30
I00
sg31
I00
sg32
I0
sbsbsg312
g0
(g201
g2
Ntp369
Rp370
(dp371
g24
I00
sg30
I00
sg31
I00
sg18
(lp372
g206
ag207
asg25
Nsg206
g0
(g33
g2
Ntp373
Rp374
(dp375
g24
I00
sg30
I00
sg31
I00
sg32
I1
sbsg207
g0
(g33
g2
Ntp376
Rp377
(dp378
g24
I00
sg30
I00
sg31
I00
sg32
I10000000
sbsbsbsg190
g0
(g201
g2
Ntp379
Rp380
(dp381
g24
I00
sg30
I00
sg31
I00
sg18
(lp382
sg25
g0
(g191
g2
Ntp383
Rp384
(dp385
g24
I00
sg30
I00
sg31
I00
sg195
g0
(g196
g2
Ntp386
Rp387
(dp388
g200
g0
(g201
g2
Ntp389
Rp390
(dp391
g24
I00
sg30
I01
sg31
I00
sg18
(lp392
g244
ag245
ag246
ag247
ag248
ag249
ag250
aVfilename
p393
aVextension
p394
aVoutput
p395
asg25
g193
sg244
g0
(g191
g2
Ntp396
Rp397
(dp398
g24
I00
sg30
I00
sg31
I00
sg195
g255
sg215
Nsbsg245
g0
(g191
g2
Ntp399
Rp400
(dp401
g24
I00
sg30
I00
sg31
I00
sg195
g255
sg215
Nsbsg246
g0
(g191
g2
Ntp402
Rp403
(dp404
g24
I00
sg30
I00
sg31
I00
sg195
g33
sg215
Nsbsg247
g0
(g191
g2
Ntp405
Rp406
(dp407
g24
I00
sg30
I00
sg31
I00
sg195
g26
sg215
Nsbsg248
g0
(g191
g2
Ntp408
Rp409
(dp410
g24
I00
sg30
I00
sg31
I00
sg195
g26
sg215
Nsbsg249
g0
(g255
g2
Ntp411
Rp412
(dp413
g24
I00
sg30
I00
sg31
I00
sg32
I00
sbsg250
g0
(g255
g2
Ntp414
Rp415
(dp416
g24
I00
sg30
I00
sg31
I00
sg32
I00
sbsg393
g0
(g191
g2
Ntp417
Rp418
(dp419
g24
I00
sg30
I00
sg31
I00
sg195
g26
sg215
Nsbsg394
g0
(g191
g2
Ntp420
Rp421
(dp422
g24
I00
sg30
I00
sg31
I00
sg195
g26
sg215
Nsbsg395
g0
(g191
g2
Ntp423
Rp424
(dp425
g24
I00
sg30
I00
sg31
I00
sg195
g26
sg215
Nsbsbsg219
Nsbsg215
Nsbsbsg44
g66
sg46
I13
sV_inProcess
p426
I00
sbsVDQMStore
p427
g0
(g177
g2
Ntp428
Rp429
(dp430
g17
g427
sg18
(lp431
sg24
I00
sg25
Nsg31
I00
sg44
g66
sg46
I13
sg426
I01
sbsVTFileService
p432
g0
(g177
g2
Ntp433
Rp434
(dp435
g17
g432
sg18
(lp436
VfileName
p437
asg24
I00
sg25
Nsg437
g0
(g26
g2
Ntp438
Rp439
(dp440
g24
I00
sg30
I01
sg31
I00
sg32
VParkingsinglemu.root
p441
sbsg31
I00
sg44
g66
sg46
I13
sg426
I01
sbssV_Process__essources
p442
(dp443
VGlobalTag
p444
g0
(cFWCore.ParameterSet.Modules
ESSource
p445
g2
Ntp446
Rp447
(dp448
g17
VPoolDBESSource
p449
sg18
(lp450
VDBParameters
p451
aVconnect
p452
aVglobaltag
p453
aVsnapshotTime
p454
aVtoGet
p455
aVDumpStat
p456
aVReconnectEachRun
p457
aVRefreshAlways
p458
aVRefreshEachRun
p459
aVRefreshOpenIOVs
p460
aVpfnPostfix
p461
aVpfnPrefix
p462
asg24
I00
sg25
Nsg451
g0
(g201
g2
Ntp463
Rp464
(dp465
g24
I00
sg30
I01
sg31
I00
sg18
(lp466
VauthenticationPath
p467
aVauthenticationSystem
p468
aVsecurity
p469
aVmessageLevel
p470
aVconnectionTimeout
p471
asg25
Nsg467
g0
(g26
g2
Ntp472
Rp473
(dp474
g24
I00
sg30
I00
sg31
I00
sg32
g43
sbsg468
g0
(g33
g2
Ntp475
Rp476
(dp477
g24
I00
sg30
I00
sg31
I00
sg32
I0
sbsg469
g0
(g26
g2
Ntp478
Rp479
(dp480
g24
I00
sg30
I00
sg31
I00
sg32
g43
sbsg470
g0
(g33
g2
Ntp481
Rp482
(dp483
g24
I00
sg30
I00
sg31
I00
sg32
I0
sbsg471
g0
(g33
g2
Ntp484
Rp485
(dp486
g24
I00
sg30
I00
sg31
I00
sg32
I0
sbsbsg31
I01
sg452
g0
(g26
g2
Ntp487
Rp488
(dp489
g24
I00
sg30
I01
sg31
I00
sg32
Vfrontier://FrontierProd/CMS_CONDITIONS
p490
sbsg453
g0
(g26
g2
Ntp491
Rp492
(dp493
g24
I00
sg30
I01
sg31
I01
sg32
V123X_dataRun3_Prompt_v12
p494
sbsg454
g0
(g26
g2
Ntp495
Rp496
(dp497
g24
I00
sg30
I01
sg31
I00
sg32
g43
sbsg455
g0
(cFWCore.ParameterSet.Types
VPSet
p498
g59
(lp499
tp500
Rp501
(dp502
g24
I00
sg30
I01
sg31
I00
sg65
I1
sbsg456
g0
(g255
g2
Ntp503
Rp504
(dp505
g24
I00
sg30
I00
sg31
I00
sg32
I00
sbsg457
g0
(g255
g2
Ntp506
Rp507
(dp508
g24
I00
sg30
I00
sg31
I00
sg32
I00
sbsg458
g0
(g255
g2
Ntp509
Rp510
(dp511
g24
I00
sg30
I00
sg31
I00
sg32
I00
sbsg459
g0
(g255
g2
Ntp512
Rp513
(dp514
g24
I00
sg30
I00
sg31
I00
sg32
I00
sbsg460
g0
(g255
g2
Ntp515
Rp516
(dp517
g24
I00
sg30
I00
sg31
I00
sg32
I00
sbsg461
g0
(g26
g2
Ntp518
Rp519
(dp520
g24
I00
sg30
I00
sg31
I00
sg32
g43
sbsg462
g0
(g26
g2
Ntp521
Rp522
(dp523
g24
I00
sg30
I00
sg31
I00
sg32
g43
sbsg44
V/cvmfs/cms.cern.ch/slc7_amd64_gcc10/cms/cmssw/CMSSW_12_4_3/python/CondCore/ESSources/CondDBESSource_cfi.py
p524
sg46
I8
sg47
g444
sbsVHcalTimeSlewEP
p525
g0
(g445
g2
Ntp526
Rp527
(dp528
g17
g525
sg18
(lp529
VappendToDataLabel
p530
aVtimeSlewParametersM2
p531
aVtimeSlewParametersM3
p532
asg24
I00
sg25
Nsg530
g0
(g26
g2
Ntp533
Rp534
(dp535
g24
I00
sg30
I01
sg31
I00
sg32
VHBHE
p536
sbsg31
I00
sg531
g0
(g498
g59
(lp537
g0
(g201
g2
Ntp538
Rp539
(dp540
g24
I00
sg30
I01
sg31
I00
sg18
(lp541
Vtzero
p542
aVslope
p543
aVtmax
p544
asg25
Nsg542
g0
(cFWCore.ParameterSet.Types
double
p545
g2
Ntp546
Rp547
(dp548
g24
I00
sg30
I01
sg31
I00
sg32
F23.960177
sbsg543
g0
(g545
g2
Ntp549
Rp550
(dp551
g24
I00
sg30
I01
sg31
I00
sg32
F-3.178648
sbsg544
g0
(g545
g2
Ntp552
Rp553
(dp554
g24
I00
sg30
I01
sg31
I00
sg32
F16.0
sbsbag0
(g201
g2
Ntp555
Rp556
(dp557
g24
I00
sg30
I01
sg31
I00
sg18
(lp558
g542
ag543
ag544
asg25
Nsg542
g0
(g545
g2
Ntp559
Rp560
(dp561
g24
I00
sg30
I01
sg31
I00
sg32
F11.977461
sbsg543
g0
(g545
g2
Ntp562
Rp563
(dp564
g24
I00
sg30
I01
sg31
I00
sg32
F-1.5610227
sbsg544
g0
(g545
g2
Ntp565
Rp566
(dp567
g24
I00
sg30
I01
sg31
I00
sg32
F10.0
sbsbag0
(g201
g2
Ntp568
Rp569
(dp570
g24
I00
sg30
I01
sg31
I00
sg18
(lp571
g542
ag543
ag544
asg25
Nsg542
g0
(g545
g2
Ntp572
Rp573
(dp574
g24
I00
sg30
I01
sg31
I00
sg32
F9.109694
sbsg543
g0
(g545
g2
Ntp575
Rp576
(dp577
g24
I00
sg30
I01
sg31
I00
sg32
F-1.075824
sbsg544
g0
(g545
g2
Ntp578
Rp579
(dp580
g24
I00
sg30
I01
sg31
I00
sg32
F6.25
sbsbatp581
Rp582
(dp583
g24
I00
sg30
I01
sg31
I00
sg65
I1
sbsg532
g0
(g498
g59
(lp584
g0
(g201
g2
Ntp585
Rp586
(dp587
g24
I00
sg30
I01
sg31
I00
sg18
(lp588
Vcap
p589
aVtspar0
p590
aVtspar1
p591
aVtspar2
p592
aVtspar0_siPM
p593
aVtspar1_siPM
p594
aVtspar2_siPM
p595
asg25
Nsg589
g0
(g545
g2
Ntp596
Rp597
(dp598
g24
I00
sg30
I01
sg31
I00
sg32
F6.0
sbsg590
g0
(g545
g2
Ntp599
Rp600
(dp601
g24
I00
sg30
I01
sg31
I00
sg32
F12.2999
sbsg591
g0
(g545
g2
Ntp602
Rp603
(dp604
g24
I00
sg30
I01
sg31
I00
sg32
F-2.19142
sbsg592
g0
(g545
g2
Ntp605
Rp606
(dp607
g24
I00
sg30
I01
sg31
I00
sg32
F0.0
sbsg593
g0
(g545
g2
Ntp608
Rp609
(dp610
g24
I00
sg30
I01
sg31
I00
sg32
F0.0
sbsg594
g0
(g545
g2
Ntp611
Rp612
(dp613
g24
I00
sg30
I01
sg31
I00
sg32
F0.0
sbsg595
g0
(g545
g2
Ntp614
Rp615
(dp616
g24
I00
sg30
I01
sg31
I00
sg32
F0.0
sbsbag0
(g201
g2
Ntp617
Rp618
(dp619
g24
I00
sg30
I01
sg31
I00
sg18
(lp620
g589
ag590
ag591
ag592
ag593
ag594
ag595
asg25
Nsg589
g0
(g545
g2
Ntp621
Rp622
(dp623
g24
I00
sg30
I01
sg31
I00
sg32
F6.0
sbsg590
g0
(g545
g2
Ntp624
Rp625
(dp626
g24
I00
sg30
I01
sg31
I00
sg32
F15.5
sbsg591
g0
(g545
g2
Ntp627
Rp628
(dp629
g24
I00
sg30
I01
sg31
I00
sg32
F-3.2
sbsg592
g0
(g545
g2
Ntp630
Rp631
(dp632
g24
I00
sg30
I01
sg31
I00
sg32
F32.0
sbsg593
g0
(g545
g2
Ntp633
Rp634
(dp635
g24
I00
sg30
I01
sg31
I00
sg32
F0.0
sbsg594
g0
(g545
g2
Ntp636
Rp637
(dp638
g24
I00
sg30
I01
sg31
I00
sg32
F0.0
sbsg595
g0
(g545
g2
Ntp639
Rp640
(dp641
g24
I00
sg30
I01
sg31
I00
sg32
F0.0
sbsbag0
(g201
g2
Ntp642
Rp643
(dp644
g24
I00
sg30
I01
sg31
I00
sg18
(lp645
g589
ag590
ag591
ag592
ag593
ag594
ag595
asg25
Nsg589
g0
(g545
g2
Ntp646
Rp647
(dp648
g24
I00
sg30
I01
sg31
I00
sg32
F6.0
sbsg590
g0
(g545
g2
Ntp649
Rp650
(dp651
g24
I00
sg30
I01
sg31
I00
sg32
F12.2999
sbsg591
g0
(g545
g2
Ntp652
Rp653
(dp654
g24
I00
sg30
I01
sg31
I00
sg32
F-2.19142
sbsg592
g0
(g545
g2
Ntp655
Rp656
(dp657
g24
I00
sg30
I01
sg31
I00
sg32
F0.0
sbsg593
g0
(g545
g2
Ntp658
Rp659
(dp660
g24
I00
sg30
I01
sg31
I00
sg32
F0.0
sbsg594
g0
(g545
g2
Ntp661
Rp662
(dp663
g24
I00
sg30
I01
sg31
I00
sg32
F0.0
sbsg595
g0
(g545
g2
Ntp664
Rp665
(dp666
g24
I00
sg30
I01
sg31
I00
sg32
F0.0
sbsbag0
(g201
g2
Ntp667
Rp668
(dp669
g24
I00
sg30
I01
sg31
I00
sg18
(lp670
g589
ag590
ag591
ag592
ag593
ag594
ag595
asg25
Nsg589
g0
(g545
g2
Ntp671
Rp672
(dp673
g24
I00
sg30
I01
sg31
I00
sg32
F6.0
sbsg590
g0
(g545
g2
Ntp674
Rp675
(dp676
g24
I00
sg30
I01
sg31
I00
sg32
F12.2999
sbsg591
g0
(g545
g2
Ntp677
Rp678
(dp679
g24
I00
sg30
I01
sg31
I00
sg32
F-2.19142
sbsg592
g0
(g545
g2
Ntp680
Rp681
(dp682
g24
I00
sg30
I01
sg31
I00
sg32
F0.0
sbsg593
g0
(g545
g2
Ntp683
Rp684
(dp685
g24
I00
sg30
I01
sg31
I00
sg32
F0.0
sbsg594
g0
(g545
g2
Ntp686
Rp687
(dp688
g24
I00
sg30
I01
sg31
I00
sg32
F0.0
sbsg595
g0
(g545
g2
Ntp689
Rp690
(dp691
g24
I00
sg30
I01
sg31
I00
sg32
F0.0
sbsbatp692
Rp693
(dp694
g24
I00
sg30
I01
sg31
I00
sg65
I1
sbsg44
V/cvmfs/cms.cern.ch/slc7_amd64_gcc10/cms/cmssw/CMSSW_12_4_3/python/CalibCalorimetry/HcalPlugins/HcalTimeSlew_cff.py
p695
sg46
I3
sg47
g525
sbsVes_hardcode
p696
g0
(g445
g2
Ntp697
Rp698
(dp699
g17
VHcalHardcodeCalibrations
p700
sg18
(lp701
g455
aViLumi
p702
aVHBRecalibration
p703
aVHBreCalibCutoff
p704
aVHBmeanenergies
p705
aVHERecalibration
p706
aVHEreCalibCutoff
p707
aVHEmeanenergies
p708
aVHFRecalibration
p709
aVHFRecalParameterBlock
p710
aVGainWidthsForTrigPrims
p711
aVuseHBUpgrade
p712
aVuseHEUpgrade
p713
aVuseHFUpgrade
p714
aVuseHOUpgrade
p715
aVtestHFQIE10
p716
aVtestHEPlan1
p717
aVkillHE
p718
aVuseLayer0Weight
p719
aVuseIeta18depth1
p720
aVhb
p721
aVhe
p722
aVhf
p723
aVho
p724
aVhbUpgrade
p725
aVheUpgrade
p726
aVhfUpgrade
p727
aVSiPMCharacteristics
p728
asg24
I00
sg25
Nsg455
g0
(g58
g59
(lp729
VGainWidths
p730
atp731
Rp732
(dp733
g24
I00
sg30
I00
sg31
I00
sg65
I1
sbsg31
I00
sg702
g0
(g545
g2
Ntp734
Rp735
(dp736
g24
I00
sg30
I01
sg31
I00
sg32
F-1.0
sbsg703
g0
(g255
g2
Ntp737
Rp738
(dp739
g24
I00
sg30
I01
sg31
I00
sg32
I00
sbsg704
g0
(g545
g2
Ntp740
Rp741
(dp742
g24
I00
sg30
I01
sg31
I00
sg32
F20.0
sbsg705
g0
(cFWCore.ParameterSet.Types
FileInPath
p743
g2
Ntp744
Rp745
(dp746
g24
I00
sg30
I01
sg31
I00
sg32
VCalibCalorimetry/HcalPlugins/data/meanenergiesHB.txt
p747
sbsg706
g0
(g255
g2
Ntp748
Rp749
(dp750
g24
I00
sg30
I01
sg31
I00
sg32
I00
sbsg707
g0
(g545
g2
Ntp751
Rp752
(dp753
g24
I00
sg30
I01
sg31
I00
sg32
F20.0
sbsg708
g0
(g743
g2
Ntp754
Rp755
(dp756
g24
I00
sg30
I01
sg31
I00
sg32
VCalibCalorimetry/HcalPlugins/data/meanenergiesHE.txt
p757
sbsg709
g0
(g255
g2
Ntp758
Rp759
(dp760
g24
I00
sg30
I01
sg31
I00
sg32
I00
sbsg710
g0
(g201
g2
Ntp761
Rp762
(dp763
g24
I00
sg30
I01
sg31
I00
sg18
(lp764
VHFdepthOneParameterA
p765
aVHFdepthOneParameterB
p766
aVHFdepthTwoParameterA
p767
aVHFdepthTwoParameterB
p768
asg25
Nsg765
g0
(cFWCore.ParameterSet.Types
vdouble
p769
g59
(lp770
F0.004123
aF0.00602
aF0.008201
aF0.010489
aF0.013379
aF0.016997
aF0.021464
aF0.027371
aF0.034195
aF0.044807
aF0.058939
aF0.125497
atp771
Rp772
(dp773
g24
I00
sg30
I01
sg31
I00
sbsg766
g0
(g769
g59
(lp774
F-4e-06
aF-2e-06
aF0.0
aF4e-06
aF1.5e-05
aF2.6e-05
aF6.3e-05
aF8.4e-05
aF0.00016
aF0.000107
aF0.000425
aF0.000209
atp775
Rp776
(dp777
g24
I00
sg30
I01
sg31
I00
sbsg767
g0
(g769
g59
(lp778
F0.002861
aF0.004168
aF0.0064
aF0.008388
aF0.011601
aF0.014425
aF0.018633
aF0.023232
aF0.028274
aF0.035447
aF0.051579
aF0.086593
atp779
Rp780
(dp781
g24
I00
sg30
I01
sg31
I00
sbsg768
g0
(g769
g59
(lp782
F-2e-06
aF-0.0
aF-7e-06
aF-6e-06
aF-2e-06
aF1e-06
aF1.9e-05
aF3.1e-05
aF6.7e-05
aF1.2e-05
aF0.000157
aF-3e-06
atp783
Rp784
(dp785
g24
I00
sg30
I01
sg31
I00
sbsg47
g710
sbsg711
g0
(g255
g2
Ntp786
Rp787
(dp788
g24
I00
sg30
I01
sg31
I00
sg32
I00
sbsg712
g0
(g255
g2
Ntp789
Rp790
(dp791
g24
I00
sg30
I01
sg31
I00
sg32
I00
sbsg713
g0
(g255
g2
Ntp792
Rp793
(dp794
g24
I00
sg30
I01
sg31
I00
sg32
I00
sbsg714
g0
(g255
g2
Ntp795
Rp796
(dp797
g24
I00
sg30
I01
sg31
I00
sg32
I00
sbsg715
g0
(g255
g2
Ntp798
Rp799
(dp800
g24
I00
sg30
I01
sg31
I00
sg32
I01
sbsg716
g0
(g255
g2
Ntp801
Rp802
(dp803
g24
I00
sg30
I01
sg31
I00
sg32
I00
sbsg717
g0
(g255
g2
Ntp804
Rp805
(dp806
g24
I00
sg30
I01
sg31
I00
sg32
I00
sbsg718
g0
(g255
g2
Ntp807
Rp808
(dp809
g24
I00
sg30
I01
sg31
I00
sg32
I00
sbsg719
g0
(g255
g2
Ntp810
Rp811
(dp812
g24
I00
sg30
I01
sg31
I00
sg32
I00
sbsg720
g0
(g255
g2
Ntp813
Rp814
(dp815
g24
I00
sg30
I01
sg31
I00
sg32
I01
sbsg721
g0
(g201
g2
Ntp816
Rp817
(dp818
g24
I00
sg30
I01
sg31
I00
sg18
(lp819
Vpedestal
p820
aVpedestalWidth
p821
aVgain
p822
aVgainWidth
p823
aVzsThreshold
p824
aVqieType
p825
aVqieOffset
p826
aVqieSlope
p827
aVmcShape
p828
aVrecoShape
p829
aVphotoelectronsToAnalog
p830
aVdarkCurrent
p831
aVnoiseCorrelation
p832
aVdoRadiationDamage
p833
asg25
Nsg820
g0
(g545
g2
Ntp834
Rp835
(dp836
g24
I00
sg30
I01
sg31
I00
sg32
F3.285
sbsg821
g0
(g545
g2
Ntp837
Rp838
(dp839
g24
I00
sg30
I01
sg31
I00
sg32
F0.809
sbsg822
g0
(g769
g59
(lp840
F0.19
atp841
Rp842
(dp843
g24
I00
sg30
I01
sg31
I00
sbsg823
g0
(g769
g59
(lp844
F0.0
atp845
Rp846
(dp847
g24
I00
sg30
I01
sg31
I00
sbsg824
g0
(g33
g2
Ntp848
Rp849
(dp850
g24
I00
sg30
I01
sg31
I00
sg32
I8
sbsg825
g0
(g33
g2
Ntp851
Rp852
(dp853
g24
I00
sg30
I01
sg31
I00
sg32
I0
sbsg826
g0
(g769
g59
(lp854
F-0.49
aF1.8
aF7.2
aF37.9
atp855
Rp856
(dp857
g24
I00
sg30
I01
sg31
I00
sbsg827
g0
(g769
g59
(lp858
F0.912
aF0.917
aF0.922
aF0.923
atp859
Rp860
(dp861
g24
I00
sg30
I01
sg31
I00
sbsg828
g0
(g33
g2
Ntp862
Rp863
(dp864
g24
I00
sg30
I01
sg31
I00
sg32
I125
sbsg829
g0
(g33
g2
Ntp865
Rp866
(dp867
g24
I00
sg30
I01
sg31
I00
sg32
I105
sbsg830
g0
(g545
g2
Ntp868
Rp869
(dp870
g24
I00
sg30
I01
sg31
I00
sg32
F0.3305
sbsg831
g0
(g769
g59
(lp871
F0.0
atp872
Rp873
(dp874
g24
I00
sg30
I01
sg31
I00
sbsg832
g0
(g769
g59
(lp875
F0.0
atp876
Rp877
(dp878
g24
I00
sg30
I01
sg31
I00
sbsg833
g0
(g255
g2
Ntp879
Rp880
(dp881
g24
I00
sg30
I01
sg31
I00
sg32
I00
sbsbsg722
g0
(g201
g2
Ntp882
Rp883
(dp884
g24
I00
sg30
I01
sg31
I00
sg18
(lp885
g820
ag821
ag822
ag823
ag824
ag825
ag826
ag827
ag828
ag829
ag830
ag831
ag832
ag833
asg25
Nsg820
g0
(g545
g2
Ntp886
Rp887
(dp888
g24
I00
sg30
I01
sg31
I00
sg32
F3.163
sbsg821
g0
(g545
g2
Ntp889
Rp890
(dp891
g24
I00
sg30
I01
sg31
I00
sg32
F0.9698
sbsg822
g0
(g769
g59
(lp892
F0.23
atp893
Rp894
(dp895
g24
I00
sg30
I01
sg31
I00
sbsg823
g0
(g769
g59
(lp896
I0
atp897
Rp898
(dp899
g24
I00
sg30
I01
sg31
I00
sbsg824
g0
(g33
g2
Ntp900
Rp901
(dp902
g24
I00
sg30
I01
sg31
I00
sg32
I9
sbsg825
g0
(g33
g2
Ntp903
Rp904
(dp905
g24
I00
sg30
I01
sg31
I00
sg32
I0
sbsg826
g0
(g769
g59
(lp906
F-0.38
aF2.0
aF7.6
aF39.6
atp907
Rp908
(dp909
g24
I00
sg30
I01
sg31
I00
sbsg827
g0
(g769
g59
(lp910
F0.912
aF0.916
aF0.92
aF0.922
atp911
Rp912
(dp913
g24
I00
sg30
I01
sg31
I00
sbsg828
g0
(g33
g2
Ntp914
Rp915
(dp916
g24
I00
sg30
I01
sg31
I00
sg32
I125
sbsg829
g0
(g33
g2
Ntp917
Rp918
(dp919
g24
I00
sg30
I01
sg31
I00
sg32
I105
sbsg830
g0
(g545
g2
Ntp920
Rp921
(dp922
g24
I00
sg30
I01
sg31
I00
sg32
F0.3305
sbsg831
g0
(g769
g59
(lp923
F0.0
atp924
Rp925
(dp926
g24
I00
sg30
I01
sg31
I00
sbsg832
g0
(g769
g59
(lp927
F0.0
atp928
Rp929
(dp930
g24
I00
sg30
I01
sg31
I00
sbsg833
g0
(g255
g2
Ntp931
Rp932
(dp933
g24
I00
sg30
I01
sg31
I00
sg32
I00
sbsbsg723
g0
(g201
g2
Ntp934
Rp935
(dp936
g24
I00
sg30
I01
sg31
I00
sg18
(lp937
g820
ag821
ag822
ag823
ag824
ag825
ag826
ag827
ag828
ag829
ag830
ag831
ag832
ag833
asg25
Nsg820
g0
(g545
g2
Ntp938
Rp939
(dp940
g24
I00
sg30
I01
sg31
I00
sg32
F9.354
sbsg821
g0
(g545
g2
Ntp941
Rp942
(dp943
g24
I00
sg30
I01
sg31
I00
sg32
F2.516
sbsg822
g0
(g769
g59
(lp944
F0.14
aF0.135
atp945
Rp946
(dp947
g24
I00
sg30
I01
sg31
I00
sbsg823
g0
(g769
g59
(lp948
F0.0
aF0.0
atp949
Rp950
(dp951
g24
I00
sg30
I01
sg31
I00
sbsg824
g0
(g33
g2
Ntp952
Rp953
(dp954
g24
I00
sg30
I01
sg31
I00
sg32
I-9999
sbsg825
g0
(g33
g2
Ntp955
Rp956
(dp957
g24
I00
sg30
I01
sg31
I00
sg32
I0
sbsg826
g0
(g769
g59
(lp958
F-0.87
aF1.4
aF7.8
aF-29.6
atp959
Rp960
(dp961
g24
I00
sg30
I01
sg31
I00
sbsg827
g0
(g769
g59
(lp962
F0.359
aF0.358
aF0.36
aF0.367
atp963
Rp964
(dp965
g24
I00
sg30
I01
sg31
I00
sbsg828
g0
(g33
g2
Ntp966
Rp967
(dp968
g24
I00
sg30
I01
sg31
I00
sg32
I301
sbsg829
g0
(g33
g2
Ntp969
Rp970
(dp971
g24
I00
sg30
I01
sg31
I00
sg32
I301
sbsg830
g0
(g545
g2
Ntp972
Rp973
(dp974
g24
I00
sg30
I01
sg31
I00
sg32
F0.0
sbsg831
g0
(g769
g59
(lp975
F0.0
atp976
Rp977
(dp978
g24
I00
sg30
I01
sg31
I00
sbsg832
g0
(g769
g59
(lp979
F0.0
atp980
Rp981
(dp982
g24
I00
sg30
I01
sg31
I00
sbsg833
g0
(g255
g2
Ntp983
Rp984
(dp985
g24
I00
sg30
I01
sg31
I00
sg32
I00
sbsbsg724
g0
(g201
g2
Ntp986
Rp987
(dp988
g24
I00
sg30
I01
sg31
I00
sg18
(lp989
g820
ag821
ag822
ag823
ag824
ag825
ag826
ag827
ag828
ag829
ag830
ag831
ag832
ag833
asg25
Nsg820
g0
(g545
g2
Ntp990
Rp991
(dp992
g24
I00
sg30
I01
sg31
I00
sg32
F12.06
sbsg821
g0
(g545
g2
Ntp993
Rp994
(dp995
g24
I00
sg30
I01
sg31
I00
sg32
F0.6285
sbsg822
g0
(g769
g59
(lp996
F0.006
aF0.0087
atp997
Rp998
(dp999
g24
I00
sg30
I01
sg31
I00
sbsg823
g0
(g769
g59
(lp1000
F0.0
aF0.0
atp1001
Rp1002
(dp1003
g24
I00
sg30
I01
sg31
I00
sbsg824
g0
(g33
g2
Ntp1004
Rp1005
(dp1006
g24
I00
sg30
I01
sg31
I00
sg32
I24
sbsg825
g0
(g33
g2
Ntp1007
Rp1008
(dp1009
g24
I00
sg30
I01
sg31
I00
sg32
I0
sbsg826
g0
(g769
g59
(lp1010
F-0.44
aF1.4
aF7.1
aF38.5
atp1011
Rp1012
(dp1013
g24
I00
sg30
I01
sg31
I00
sbsg827
g0
(g769
g59
(lp1014
F0.907
aF0.915
aF0.92
aF0.921
atp1015
Rp1016
(dp1017
g24
I00
sg30
I01
sg31
I00
sbsg828
g0
(g33
g2
Ntp1018
Rp1019
(dp1020
g24
I00
sg30
I01
sg31
I00
sg32
I201
sbsg829
g0
(g33
g2
Ntp1021
Rp1022
(dp1023
g24
I00
sg30
I01
sg31
I00
sg32
I201
sbsg830
g0
(g545
g2
Ntp1024
Rp1025
(dp1026
g24
I00
sg30
I01
sg31
I00
sg32
F4.0
sbsg831
g0
(g769
g59
(lp1027
F0.0
atp1028
Rp1029
(dp1030
g24
I00
sg30
I01
sg31
I00
sbsg832
g0
(g769
g59
(lp1031
F0.0
atp1032
Rp1033
(dp1034
g24
I00
sg30
I01
sg31
I00
sbsg833
g0
(g255
g2
Ntp1035
Rp1036
(dp1037
g24
I00
sg30
I01
sg31
I00
sg32
I00
sbsbsg725
g0
(g201
g2
Ntp1038
Rp1039
(dp1040
g24
I00
sg30
I01
sg31
I00
sg18
(lp1041
g820
ag821
ag822
ag823
ag824
ag825
ag826
ag827
ag828
ag829
ag830
ag831
ag832
ag833
aVradiationDamage
p1042
asg25
Nsg820
g0
(g545
g2
Ntp1043
Rp1044
(dp1045
g24
I00
sg30
I01
sg31
I00
sg32
F17.3
sbsg821
g0
(g545
g2
Ntp1046
Rp1047
(dp1048
g24
I00
sg30
I01
sg31
I00
sg32
F1.5
sbsg822
g0
(g769
g59
(lp1049
F0.0006252
atp1050
Rp1051
(dp1052
g24
I00
sg30
I01
sg31
I00
sbsg823
g0
(g769
g59
(lp1053
I0
atp1054
Rp1055
(dp1056
g24
I00
sg30
I01
sg31
I00
sbsg824
g0
(g33
g2
Ntp1057
Rp1058
(dp1059
g24
I00
sg30
I01
sg31
I00
sg32
I16
sbsg825
g0
(g33
g2
Ntp1060
Rp1061
(dp1062
g24
I00
sg30
I01
sg31
I00
sg32
I2
sbsg826
g0
(g769
g59
(lp1063
F0.0
aF0.0
aF0.0
aF0.0
atp1064
Rp1065
(dp1066
g24
I00
sg30
I01
sg31
I00
sbsg827
g0
(g769
g59
(lp1067
F0.05376
aF0.05376
aF0.05376
aF0.05376
atp1068
Rp1069
(dp1070
g24
I00
sg30
I01
sg31
I00
sbsg828
g0
(g33
g2
Ntp1071
Rp1072
(dp1073
g24
I00
sg30
I01
sg31
I00
sg32
I206
sbsg829
g0
(g33
g2
Ntp1074
Rp1075
(dp1076
g24
I00
sg30
I01
sg31
I00
sg32
I208
sbsg830
g0
(g545
g2
Ntp1077
Rp1078
(dp1079
g24
I00
sg30
I01
sg31
I00
sg32
F40.0
sbsg831
g0
(g769
g59
(lp1080
F0.01
aF0.015
atp1081
Rp1082
(dp1083
g24
I00
sg30
I01
sg31
I00
sbsg832
g0
(g769
g59
(lp1084
F0.26
aF0.254
atp1085
Rp1086
(dp1087
g24
I00
sg30
I01
sg31
I00
sbsg833
g0
(g255
g2
Ntp1088
Rp1089
(dp1090
g24
I00
sg30
I01
sg31
I00
sg32
I01
sbsg1042
g0
(g201
g2
Ntp1091
Rp1092
(dp1093
g24
I00
sg30
I01
sg31
I00
sg18
(lp1094
VtemperatureBase
p1095
aVtemperatureNew
p1096
aVintlumiOffset
p1097
aVdepVsTemp
p1098
aVintlumiToNeutrons
p1099
aVdepVsNeutrons
p1100
asg25
Nsg1095
g0
(g545
g2
Ntp1101
Rp1102
(dp1103
g24
I00
sg30
I01
sg31
I00
sg32
I20
sbsg1096
g0
(g545
g2
Ntp1104
Rp1105
(dp1106
g24
I00
sg30
I01
sg31
I00
sg32
I-5
sbsg1097
g0
(g545
g2
Ntp1107
Rp1108
(dp1109
g24
I00
sg30
I01
sg31
I00
sg32
I150
sbsg1098
g0
(g545
g2
Ntp1110
Rp1111
(dp1112
g24
I00
sg30
I01
sg31
I00
sg32
F0.0631
sbsg1099
g0
(g545
g2
Ntp1113
Rp1114
(dp1115
g24
I00
sg30
I01
sg31
I00
sg32
F367000000.0
sbsg1100
g0
(g769
g59
(lp1116
F5.543e-10
aF8.012e-10
atp1117
Rp1118
(dp1119
g24
I00
sg30
I01
sg31
I00
sbsbsbsg726
g0
(g201
g2
Ntp1120
Rp1121
(dp1122
g24
I00
sg30
I01
sg31
I00
sg18
(lp1123
g820
ag821
ag822
ag823
ag824
ag825
ag826
ag827
ag828
ag829
ag830
ag831
ag832
ag833
ag1042
asg25
Nsg820
g0
(g545
g2
Ntp1124
Rp1125
(dp1126
g24
I00
sg30
I01
sg31
I00
sg32
F17.3
sbsg821
g0
(g545
g2
Ntp1127
Rp1128
(dp1129
g24
I00
sg30
I01
sg31
I00
sg32
F1.5
sbsg822
g0
(g769
g59
(lp1130
F0.0006252
atp1131
Rp1132
(dp1133
g24
I00
sg30
I01
sg31
I00
sbsg823
g0
(g769
g59
(lp1134
I0
atp1135
Rp1136
(dp1137
g24
I00
sg30
I01
sg31
I00
sbsg824
g0
(g33
g2
Ntp1138
Rp1139
(dp1140
g24
I00
sg30
I01
sg31
I00
sg32
I16
sbsg825
g0
(g33
g2
Ntp1141
Rp1142
(dp1143
g24
I00
sg30
I01
sg31
I00
sg32
I2
sbsg826
g0
(g769
g59
(lp1144
F0.0
aF0.0
aF0.0
aF0.0
atp1145
Rp1146
(dp1147
g24
I00
sg30
I01
sg31
I00
sbsg827
g0
(g769
g59
(lp1148
F0.05376
aF0.05376
aF0.05376
aF0.05376
atp1149
Rp1150
(dp1151
g24
I00
sg30
I01
sg31
I00
sbsg828
g0
(g33
g2
Ntp1152
Rp1153
(dp1154
g24
I00
sg30
I01
sg31
I00
sg32
I206
sbsg829
g0
(g33
g2
Ntp1155
Rp1156
(dp1157
g24
I00
sg30
I01
sg31
I00
sg32
I208
sbsg830
g0
(g545
g2
Ntp1158
Rp1159
(dp1160
g24
I00
sg30
I01
sg31
I00
sg32
F40.0
sbsg831
g0
(g769
g59
(lp1161
F0.01
aF0.015
atp1162
Rp1163
(dp1164
g24
I00
sg30
I01
sg31
I00
sbsg832
g0
(g769
g59
(lp1165
F0.26
aF0.254
atp1166
Rp1167
(dp1168
g24
I00
sg30
I01
sg31
I00
sbsg833
g0
(g255
g2
Ntp1169
Rp1170
(dp1171
g24
I00
sg30
I01
sg31
I00
sg32
I01
sbsg1042
g0
(g201
g2
Ntp1172
Rp1173
(dp1174
g24
I00
sg30
I01
sg31
I00
sg18
(lp1175
g1095
ag1096
ag1097
ag1098
ag1099
ag1100
asg25
Nsg1095
g0
(g545
g2
Ntp1176
Rp1177
(dp1178
g24
I00
sg30
I01
sg31
I00
sg32
I20
sbsg1096
g0
(g545
g2
Ntp1179
Rp1180
(dp1181
g24
I00
sg30
I01
sg31
I00
sg32
I5
sbsg1097
g0
(g545
g2
Ntp1182
Rp1183
(dp1184
g24
I00
sg30
I01
sg31
I00
sg32
I75
sbsg1098
g0
(g545
g2
Ntp1185
Rp1186
(dp1187
g24
I00
sg30
I01
sg31
I00
sg32
F0.0631
sbsg1099
g0
(g545
g2
Ntp1188
Rp1189
(dp1190
g24
I00
sg30
I01
sg31
I00
sg32
F29200000.0
sbsg1100
g0
(g769
g59
(lp1191
F5.543e-10
aF8.012e-10
atp1192
Rp1193
(dp1194
g24
I00
sg30
I01
sg31
I00
sbsbsbsg727
g0
(g201
g2
Ntp1195
Rp1196
(dp1197
g24
I00
sg30
I01
sg31
I00
sg18
(lp1198
g820
ag821
ag822
ag823
ag824
ag825
ag826
ag827
ag828
ag829
ag830
ag831
ag832
ag833
asg25
Nsg820
g0
(g545
g2
Ntp1199
Rp1200
(dp1201
g24
I00
sg30
I01
sg31
I00
sg32
F13.33
sbsg821
g0
(g545
g2
Ntp1202
Rp1203
(dp1204
g24
I00
sg30
I01
sg31
I00
sg32
F3.33
sbsg822
g0
(g769
g59
(lp1205
F0.14
aF0.135
atp1206
Rp1207
(dp1208
g24
I00
sg30
I01
sg31
I00
sbsg823
g0
(g769
g59
(lp1209
F0.0
aF0.0
atp1210
Rp1211
(dp1212
g24
I00
sg30
I01
sg31
I00
sbsg824
g0
(g33
g2
Ntp1213
Rp1214
(dp1215
g24
I00
sg30
I01
sg31
I00
sg32
I-9999
sbsg825
g0
(g33
g2
Ntp1216
Rp1217
(dp1218
g24
I00
sg30
I01
sg31
I00
sg32
I1
sbsg826
g0
(g769
g59
(lp1219
F0.0697
aF-0.7405
aF12.38
aF-671.9
atp1220
Rp1221
(dp1222
g24
I00
sg30
I01
sg31
I00
sbsg827
g0
(g769
g59
(lp1223
F0.297
aF0.298
aF0.298
aF0.313
atp1224
Rp1225
(dp1226
g24
I00
sg30
I01
sg31
I00
sbsg828
g0
(g33
g2
Ntp1227
Rp1228
(dp1229
g24
I00
sg30
I01
sg31
I00
sg32
I301
sbsg829
g0
(g33
g2
Ntp1230
Rp1231
(dp1232
g24
I00
sg30
I01
sg31
I00
sg32
I301
sbsg830
g0
(g545
g2
Ntp1233
Rp1234
(dp1235
g24
I00
sg30
I01
sg31
I00
sg32
F0.0
sbsg831
g0
(g769
g59
(lp1236
F0.0
atp1237
Rp1238
(dp1239
g24
I00
sg30
I01
sg31
I00
sbsg832
g0
(g769
g59
(lp1240
F0.0
atp1241
Rp1242
(dp1243
g24
I00
sg30
I01
sg31
I00
sbsg833
g0
(g255
g2
Ntp1244
Rp1245
(dp1246
g24
I00
sg30
I01
sg31
I00
sg32
I00
sbsbsg728
g0
(g498
g59
(lp1247
g0
(g201
g2
Ntp1248
Rp1249
(dp1250
g24
I00
sg30
I01
sg31
I00
sg18
(lp1251
Vpixels
p1252
aVcrosstalk
p1253
aVnonlin1
p1254
aVnonlin2
p1255
aVnonlin3
p1256
asg25
Nsg1252
g0
(g33
g2
Ntp1257
Rp1258
(dp1259
g24
I00
sg30
I01
sg31
I00
sg32
I36000
sbsg1253
g0
(g545
g2
Ntp1260
Rp1261
(dp1262
g24
I00
sg30
I01
sg31
I00
sg32
F0.0
sbsg1254
g0
(g545
g2
Ntp1263
Rp1264
(dp1265
g24
I00
sg30
I01
sg31
I00
sg32
F1.0
sbsg1255
g0
(g545
g2
Ntp1266
Rp1267
(dp1268
g24
I00
sg30
I01
sg31
I00
sg32
F0.0
sbsg1256
g0
(g545
g2
Ntp1269
Rp1270
(dp1271
g24
I00
sg30
I01
sg31
I00
sg32
F0.0
sbsbag0
(g201
g2
Ntp1272
Rp1273
(dp1274
g24
I00
sg30
I01
sg31
I00
sg18
(lp1275
g1252
ag1253
ag1254
ag1255
ag1256
asg25
Nsg1252
g0
(g33
g2
Ntp1276
Rp1277
(dp1278
g24
I00
sg30
I01
sg31
I00
sg32
I2500
sbsg1253
g0
(g545
g2
Ntp1279
Rp1280
(dp1281
g24
I00
sg30
I01
sg31
I00
sg32
F0.0
sbsg1254
g0
(g545
g2
Ntp1282
Rp1283
(dp1284
g24
I00
sg30
I01
sg31
I00
sg32
F1.0
sbsg1255
g0
(g545
g2
Ntp1285
Rp1286
(dp1287
g24
I00
sg30
I01
sg31
I00
sg32
F0.0
sbsg1256
g0
(g545
g2
Ntp1288
Rp1289
(dp1290
g24
I00
sg30
I01
sg31
I00
sg32
F0.0
sbsbag0
(g201
g2
Ntp1291
Rp1292
(dp1293
g24
I00
sg30
I01
sg31
I00
sg18
(lp1294
g1252
ag1253
ag1254
ag1255
ag1256
asg25
Nsg1252
g0
(g33
g2
Ntp1295
Rp1296
(dp1297
g24
I00
sg30
I01
sg31
I00
sg32
I27370
sbsg1253
g0
(g545
g2
Ntp1298
Rp1299
(dp1300
g24
I00
sg30
I01
sg31
I00
sg32
F0.17
sbsg1254
g0
(g545
g2
Ntp1301
Rp1302
(dp1303
g24
I00
sg30
I01
sg31
I00
sg32
F1.00985
sbsg1255
g0
(g545
g2
Ntp1304
Rp1305
(dp1306
g24
I00
sg30
I01
sg31
I00
sg32
F7.84089e-06
sbsg1256
g0
(g545
g2
Ntp1307
Rp1308
(dp1309
g24
I00
sg30
I01
sg31
I00
sg32
F2.86282e-10
sbsbag0
(g201
g2
Ntp1310
Rp1311
(dp1312
g24
I00
sg30
I01
sg31
I00
sg18
(lp1313
g1252
ag1253
ag1254
ag1255
ag1256
asg25
Nsg1252
g0
(g33
g2
Ntp1314
Rp1315
(dp1316
g24
I00
sg30
I01
sg31
I00
sg32
I38018
sbsg1253
g0
(g545
g2
Ntp1317
Rp1318
(dp1319
g24
I00
sg30
I01
sg31
I00
sg32
F0.196
sbsg1254
g0
(g545
g2
Ntp1320
Rp1321
(dp1322
g24
I00
sg30
I01
sg31
I00
sg32
F1.00546
sbsg1255
g0
(g545
g2
Ntp1323
Rp1324
(dp1325
g24
I00
sg30
I01
sg31
I00
sg32
F6.40239e-06
sbsg1256
g0
(g545
g2
Ntp1326
Rp1327
(dp1328
g24
I00
sg30
I01
sg31
I00
sg32
F1.27011e-10
sbsbag0
(g201
g2
Ntp1329
Rp1330
(dp1331
g24
I00
sg30
I01
sg31
I00
sg18
(lp1332
g1252
ag1253
ag1254
ag1255
ag1256
asg25
Nsg1252
g0
(g33
g2
Ntp1333
Rp1334
(dp1335
g24
I00
sg30
I01
sg31
I00
sg32
I27370
sbsg1253
g0
(g545
g2
Ntp1336
Rp1337
(dp1338
g24
I00
sg30
I01
sg31
I00
sg32
F0.17
sbsg1254
g0
(g545
g2
Ntp1339
Rp1340
(dp1341
g24
I00
sg30
I01
sg31
I00
sg32
F1.00985
sbsg1255
g0
(g545
g2
Ntp1342
Rp1343
(dp1344
g24
I00
sg30
I01
sg31
I00
sg32
F7.84089e-06
sbsg1256
g0
(g545
g2
Ntp1345
Rp1346
(dp1347
g24
I00
sg30
I01
sg31
I00
sg32
F2.86282e-10
sbsbag0
(g201
g2
Ntp1348
Rp1349
(dp1350
g24
I00
sg30
I01
sg31
I00
sg18
(lp1351
g1252
ag1253
ag1254
ag1255
ag1256
asg25
Nsg1252
g0
(g33
g2
Ntp1352
Rp1353
(dp1354
g24
I00
sg30
I01
sg31
I00
sg32
I38018
sbsg1253
g0
(g545
g2
Ntp1355
Rp1356
(dp1357
g24
I00
sg30
I01
sg31
I00
sg32
F0.196
sbsg1254
g0
(g545
g2
Ntp1358
Rp1359
(dp1360
g24
I00
sg30
I01
sg31
I00
sg32
F1.00546
sbsg1255
g0
(g545
g2
Ntp1361
Rp1362
(dp1363
g24
I00
sg30
I01
sg31
I00
sg32
F6.40239e-06
sbsg1256
g0
(g545
g2
Ntp1364
Rp1365
(dp1366
g24
I00
sg30
I01
sg31
I00
sg32
F1.27011e-10
sbsbag0
(g201
g2
Ntp1367
Rp1368
(dp1369
g24
I00
sg30
I01
sg31
I00
sg18
(lp1370
g1252
ag1253
ag1254
ag1255
ag1256
asg25
Nsg1252
g0
(g33
g2
Ntp1371
Rp1372
(dp1373
g24
I00
sg30
I01
sg31
I00
sg32
I0
sbsg1253
g0
(g545
g2
Ntp1374
Rp1375
(dp1376
g24
I00
sg30
I01
sg31
I00
sg32
F0.0
sbsg1254
g0
(g545
g2
Ntp1377
Rp1378
(dp1379
g24
I00
sg30
I01
sg31
I00
sg32
F1.0
sbsg1255
g0
(g545
g2
Ntp1380
Rp1381
(dp1382
g24
I00
sg30
I01
sg31
I00
sg32
F0.0
sbsg1256
g0
(g545
g2
Ntp1383
Rp1384
(dp1385
g24
I00
sg30
I01
sg31
I00
sg32
F0.0
sbsbatp1386
Rp1387
(dp1388
g24
I00
sg30
I01
sg31
I00
sg65
I1
sbsg44
V/cvmfs/cms.cern.ch/slc7_amd64_gcc10/cms/cmssw/CMSSW_12_4_3/python/CalibCalorimetry/HcalPlugins/Hcal_Conditions_forGlobalTag_cff.py
p1389
sg46
I16
sg47
g696
sbsVeegeom
p1390
g0
(g445
g2
Ntp1391
Rp1392
(dp1393
g17
VEmptyESSource
p1394
sg18
(lp1395
VrecordName
p1396
aViovIsRunNotTime
p1397
aVfirstValid
p1398
asg24
I00
sg25
Nsg1396
g0
(g26
g2
Ntp1399
Rp1400
(dp1401
g24
I00
sg30
I01
sg31
I00
sg32
VEcalMappingRcd
p1402
sbsg31
I00
sg1397
g0
(g255
g2
Ntp1403
Rp1404
(dp1405
g24
I00
sg30
I01
sg31
I00
sg32
I01
sbsg1398
g0
(cFWCore.ParameterSet.Types
vuint32
p1406
g59
(lp1407
I1
atp1408
Rp1409
(dp1410
g24
I00
sg30
I01
sg31
I00
sbsg44
V/cvmfs/cms.cern.ch/slc7_amd64_gcc10/cms/cmssw/CMSSW_12_4_3/python/Geometry/EcalMapping/EcalMappingRecord_cfi.py
p1411
sg46
I3
sg47
g1390
sbssV_Process__esproducers
p1412
(dp1413
VTransientTrackBuilderESProducer
p1414
g0
(cFWCore.ParameterSet.Modules
ESProducer
p1415
g2
Ntp1416
Rp1417
(dp1418
g17
g1414
sg18
(lp1419
VComponentName
p1420
asg24
I00
sg25
Nsg1420
g0
(g26
g2
Ntp1421
Rp1422
(dp1423
g24
I00
sg30
I01
sg31
I00
sg32
VTransientTrackBuilder
p1424
sbsg31
I00
sg44
g66
sg46
I55
sg47
g1414
sbsVParabolicParametrizedMagneticFieldProducer
p1425
g0
(g1415
g2
Ntp1426
Rp1427
(dp1428
g17
VAutoParametrizedMagneticFieldProducer
p1429
sg18
(lp1430
Vversion
p1431
aVlabel
p1432
aVvalueOverride
p1433
asg24
I00
sg25
Nsg1431
g0
(g26
g2
Ntp1434
Rp1435
(dp1436
g24
I00
sg30
I01
sg31
I00
sg32
VParabolic
p1437
sbsg31
I01
sg1432
g0
(g26
g2
Ntp1438
Rp1439
(dp1440
g24
I00
sg30
I00
sg31
I01
sg32
VParabolicMf
p1441
sbsg1433
g0
(g33
g2
Ntp1442
Rp1443
(dp1444
g24
I00
sg30
I01
sg31
I00
sg32
I-1
sbsg44
g66
sg46
I55
sg47
g1425
sbsVVolumeBasedMagneticFieldESProducer
p1445
g0
(g1415
g2
Ntp1446
Rp1447
(dp1448
g17
VVolumeBasedMagneticFieldESProducerFromDB
p1449
sg18
(lp1450
g1432
aVdebugBuilder
p1451
ag1433
asg24
I00
sg25
Nsg1432
g0
(g26
g2
Ntp1452
Rp1453
(dp1454
g24
I00
sg30
I00
sg31
I00
sg32
g43
sbsg31
I00
sg1451
g0
(g255
g2
Ntp1455
Rp1456
(dp1457
g24
I00
sg30
I00
sg31
I00
sg32
I00
sbsg1433
g0
(g33
g2
Ntp1458
Rp1459
(dp1460
g24
I00
sg30
I01
sg31
I00
sg32
I-1
sbsg44
g66
sg46
I55
sg47
g1445
sbsVCastorDbProducer
p1461
g0
(g1415
g2
Ntp1462
Rp1463
(dp1464
g17
g1461
sg18
(lp1465
g530
asg24
I00
sg25
Nsg530
g0
(g26
g2
Ntp1466
Rp1467
(dp1468
g24
I00
sg30
I01
sg31
I00
sg32
g43
sbsg31
I00
sg44
g66
sg46
I55
sg47
g1461
sbsVEcalLaserCorrectionService
p1469
g0
(g1415
g2
Ntp1470
Rp1471
(dp1472
g17
g1469
sg18
(lp1473
VmaxExtrapolationTimeInSec
p1474
asg24
I00
sg25
Nsg1474
g0
(cFWCore.ParameterSet.Types
uint32
p1475
g2
Ntp1476
Rp1477
(dp1478
g24
I00
sg30
I01
sg31
I00
sg32
I0
sbsg31
I00
sg44
g66
sg46
I55
sg47
g1469
sbsVEcalLaserCorrectionServiceMC
p1479
g0
(g1415
g2
Ntp1480
Rp1481
(dp1482
g17
g1479
sg18
(lp1483
g530
asg24
I00
sg25
Nsg530
g0
(g26
g2
Ntp1484
Rp1485
(dp1486
g24
I00
sg30
I01
sg31
I00
sg32
g43
sbsg31
I00
sg44
g66
sg46
I55
sg47
g1479
sbsVSiStripRecHitMatcherESProducer
p1487
g0
(g1415
g2
Ntp1488
Rp1489
(dp1490
g17
g1487
sg18
(lp1491
g1420
aVNSigmaInside
p1492
aVPreFilter
p1493
asg24
I00
sg25
Nsg1420
g0
(g26
g2
Ntp1494
Rp1495
(dp1496
g24
I00
sg30
I01
sg31
I00
sg32
VStandardMatcher
p1497
sbsg31
I00
sg1492
g0
(g545
g2
Ntp1498
Rp1499
(dp1500
g24
I00
sg30
I01
sg31
I00
sg32
F3.0
sbsg1493
g0
(g255
g2
Ntp1501
Rp1502
(dp1503
g24
I00
sg30
I01
sg31
I00
sg32
I00
sbsg44
g66
sg46
I55
sg47
g1487
sbsVStripCPEfromTrackAngleESProducer
p1504
g0
(g1415
g2
Ntp1505
Rp1506
(dp1507
g17
VStripCPEESProducer
p1508
sg18
(lp1509
g1420
aVComponentType
p1510
aVparameters
p1511
asg24
I00
sg25
Nsg1420
g0
(g26
g2
Ntp1512
Rp1513
(dp1514
g24
I00
sg30
I01
sg31
I01
sg32
VStripCPEfromTrackAngle
p1515
sbsg31
I00
sg1510
g0
(g26
g2
Ntp1516
Rp1517
(dp1518
g24
I00
sg30
I01
sg31
I01
sg32
g1515
sbsg1511
g0
(g201
g2
Ntp1519
Rp1520
(dp1521
g24
I00
sg30
I01
sg31
I00
sg18
(lp1522
VmLC_P0
p1523
aVmLC_P1
p1524
aVmLC_P2
p1525
aVmTIB_P0
p1526
aVmTIB_P1
p1527
aVmTOB_P0
p1528
aVmTOB_P1
p1529
aVmTID_P0
p1530
aVmTID_P1
p1531
aVmTEC_P0
p1532
aVmTEC_P1
p1533
aVuseLegacyError
p1534
aVmaxChgOneMIP
p1535
asg25
Nsg1523
g0
(g545
g2
Ntp1536
Rp1537
(dp1538
g24
I00
sg30
I01
sg31
I00
sg32
F-0.326
sbsg1524
g0
(g545
g2
Ntp1539
Rp1540
(dp1541
g24
I00
sg30
I01
sg31
I00
sg32
F0.618
sbsg1525
g0
(g545
g2
Ntp1542
Rp1543
(dp1544
g24
I00
sg30
I01
sg31
I00
sg32
F0.3
sbsg1526
g0
(g545
g2
Ntp1545
Rp1546
(dp1547
g24
I00
sg30
I01
sg31
I00
sg32
F-0.742
sbsg1527
g0
(g545
g2
Ntp1548
Rp1549
(dp1550
g24
I00
sg30
I01
sg31
I00
sg32
F0.202
sbsg1528
g0
(g545
g2
Ntp1551
Rp1552
(dp1553
g24
I00
sg30
I01
sg31
I00
sg32
F-1.026
sbsg1529
g0
(g545
g2
Ntp1554
Rp1555
(dp1556
g24
I00
sg30
I01
sg31
I00
sg32
F0.253
sbsg1530
g0
(g545
g2
Ntp1557
Rp1558
(dp1559
g24
I00
sg30
I01
sg31
I00
sg32
F-1.427
sbsg1531
g0
(g545
g2
Ntp1560
Rp1561
(dp1562
g24
I00
sg30
I01
sg31
I00
sg32
F0.433
sbsg1532
g0
(g545
g2
Ntp1563
Rp1564
(dp1565
g24
I00
sg30
I01
sg31
I00
sg32
F-1.885
sbsg1533
g0
(g545
g2
Ntp1566
Rp1567
(dp1568
g24
I00
sg30
I01
sg31
I00
sg32
F0.471
sbsg1534
g0
(g255
g2
Ntp1569
Rp1570
(dp1571
g24
I00
sg30
I01
sg31
I00
sg32
I00
sbsg1535
g0
(g545
g2
Ntp1572
Rp1573
(dp1574
g24
I00
sg30
I01
sg31
I00
sg32
F6000.0
sbsbsg44
V/cvmfs/cms.cern.ch/slc7_amd64_gcc10/cms/cmssw/CMSSW_12_4_3/python/RecoLocalTracker/SiStripRecHitConverter/StripCPEfromTrackAngle_cfi.py
p1575
sg46
I4
sg47
g1504
sbsVctppsBeamParametersFromLHCInfoESSource
p1576
g0
(g1415
g2
Ntp1577
Rp1578
(dp1579
g17
VCTPPSBeamParametersFromLHCInfoESSource
p1580
sg18
(lp1581
VlhcInfoLabel
p1582
aVbeamDivX45
p1583
aVbeamDivY45
p1584
aVbeamDivX56
p1585
aVbeamDivY56
p1586
aVvtxOffsetX45
p1587
aVvtxOffsetY45
p1588
aVvtxOffsetZ45
p1589
aVvtxOffsetX56
p1590
aVvtxOffsetY56
p1591
aVvtxOffsetZ56
p1592
aVvtxStddevX
p1593
aVvtxStddevY
p1594
aVvtxStddevZ
p1595
ag530
asg24
I00
sg25
Nsg1582
g0
(g26
g2
Ntp1596
Rp1597
(dp1598
g24
I00
sg30
I01
sg31
I00
sg32
g43
sbsg31
I00
sg1583
g0
(g545
g2
Ntp1599
Rp1600
(dp1601
g24
I00
sg30
I01
sg31
I00
sg32
F0.1
sbsg1584
g0
(g545
g2
Ntp1602
Rp1603
(dp1604
g24
I00
sg30
I01
sg31
I00
sg32
F0.1
sbsg1585
g0
(g545
g2
Ntp1605
Rp1606
(dp1607
g24
I00
sg30
I01
sg31
I00
sg32
F0.1
sbsg1586
g0
(g545
g2
Ntp1608
Rp1609
(dp1610
g24
I00
sg30
I01
sg31
I00
sg32
F0.1
sbsg1587
g0
(g545
g2
Ntp1611
Rp1612
(dp1613
g24
I00
sg30
I01
sg31
I00
sg32
F0.01
sbsg1588
g0
(g545
g2
Ntp1614
Rp1615
(dp1616
g24
I00
sg30
I01
sg31
I00
sg32
F0.01
sbsg1589
g0
(g545
g2
Ntp1617
Rp1618
(dp1619
g24
I00
sg30
I01
sg31
I00
sg32
F0.01
sbsg1590
g0
(g545
g2
Ntp1620
Rp1621
(dp1622
g24
I00
sg30
I01
sg31
I00
sg32
F0.01
sbsg1591
g0
(g545
g2
Ntp1623
Rp1624
(dp1625
g24
I00
sg30
I01
sg31
I00
sg32
F0.01
sbsg1592
g0
(g545
g2
Ntp1626
Rp1627
(dp1628
g24
I00
sg30
I01
sg31
I00
sg32
F0.01
sbsg1593
g0
(g545
g2
Ntp1629
Rp1630
(dp1631
g24
I00
sg30
I01
sg31
I00
sg32
F0.02
sbsg1594
g0
(g545
g2
Ntp1632
Rp1633
(dp1634
g24
I00
sg30
I01
sg31
I00
sg32
F0.02
sbsg1595
g0
(g545
g2
Ntp1635
Rp1636
(dp1637
g24
I00
sg30
I01
sg31
I00
sg32
F0.02
sbsg530
g0
(g26
g2
Ntp1638
Rp1639
(dp1640
g24
I00
sg30
I01
sg31
I00
sg32
g43
sbsg44
g66
sg46
I55
sg47
g1576
sbsVctppsInterpolatedOpticalFunctionsESSource
p1641
g0
(g1415
g2
Ntp1642
Rp1643
(dp1644
g17
VCTPPSInterpolatedOpticalFunctionsESSource
p1645
sg18
(lp1646
g1582
aVopticsLabel
p1647
ag530
asg24
I00
sg25
Nsg1582
g0
(g26
g2
Ntp1648
Rp1649
(dp1650
g24
I00
sg30
I01
sg31
I00
sg32
g43
sbsg31
I01
sg1647
g0
(g26
g2
Ntp1651
Rp1652
(dp1653
g24
I00
sg30
I01
sg31
I00
sg32
g43
sbsg530
g0
(g26
g2
Ntp1654
Rp1655
(dp1656
g24
I00
sg30
I01
sg31
I00
sg32
g43
sbsg44
g66
sg46
I55
sg47
g1641
sbsVhcal_db_producer
p1657
g0
(g1415
g2
Ntp1658
Rp1659
(dp1660
g17
VHcalDbProducer
p1661
sg18
(lp1662
Vdump
p1663
aVfile
p1664
asg24
I00
sg25
Nsg1663
g0
(g58
g59
(lp1665
g43
atp1666
Rp1667
(dp1668
g24
I00
sg30
I00
sg31
I00
sg65
I1
sbsg31
I00
sg1664
g0
(g26
g2
Ntp1669
Rp1670
(dp1671
g24
I00
sg30
I00
sg31
I00
sg32
g43
sbsg44
g66
sg46
I55
sg47
g1657
sbsVmultipleScatteringParametrisationMakerESProducer
p1672
g0
(g1415
g2
Ntp1673
Rp1674
(dp1675
g17
VMultipleScatteringParametrisationMakerESProducer
p1676
sg18
(lp1677
g530
asg24
I00
sg25
Nsg530
g0
(g26
g2
Ntp1678
Rp1679
(dp1680
g24
I00
sg30
I01
sg31
I00
sg32
g43
sbsg31
I00
sg44
g66
sg46
I55
sg47
g1672
sbsVsiPixelQualityESProducer
p1681
g0
(g1415
g2
Ntp1682
Rp1683
(dp1684
g17
VSiPixelQualityESProducer
p1685
sg18
(lp1686
VsiPixelQualityLabel
p1687
aVListOfRecordToMerge
p1688
asg24
I00
sg25
Nsg1687
g0
(g26
g2
Ntp1689
Rp1690
(dp1691
g24
I00
sg30
I01
sg31
I00
sg32
g43
sbsg31
I01
sg44
g66
sg46
I55
sg1688
g0
(g498
g59
(lp1692
g0
(g201
g2
Ntp1693
Rp1694
(dp1695
g24
I00
sg30
I01
sg31
I00
sg18
(lp1696
Vrecord
p1697
aVtag
p1698
asg25
Nsg1697
g0
(g26
g2
Ntp1699
Rp1700
(dp1701
g24
I00
sg30
I01
sg31
I00
sg32
VSiPixelQualityFromDbRcd
p1702
sbsg1698
g0
(g26
g2
Ntp1703
Rp1704
(dp1705
g24
I00
sg30
I01
sg31
I00
sg32
g43
sbsbag0
(g201
g2
Ntp1706
Rp1707
(dp1708
g24
I00
sg30
I01
sg31
I00
sg18
(lp1709
g1697
ag1698
asg25
Nsg1697
g0
(g26
g2
Ntp1710
Rp1711
(dp1712
g24
I00
sg30
I01
sg31
I00
sg32
VSiPixelDetVOffRcd
p1713
sbsg1698
g0
(g26
g2
Ntp1714
Rp1715
(dp1716
g24
I00
sg30
I01
sg31
I00
sg32
g43
sbsbatp1717
Rp1718
(dp1719
g24
I00
sg30
I01
sg31
I00
sg65
I1
sbsg47
g1681
sbsVsiStripBackPlaneCorrectionDepESProducer
p1720
g0
(g1415
g2
Ntp1721
Rp1722
(dp1723
g17
VSiStripBackPlaneCorrectionDepESProducer
p1724
sg18
(lp1725
VLatencyRecord
p1726
aVBackPlaneCorrectionPeakMode
p1727
aVBackPlaneCorrectionDeconvMode
p1728
asg24
I00
sg25
Nsg1726
g0
(g201
g2
Ntp1729
Rp1730
(dp1731
g24
I00
sg30
I01
sg31
I00
sg18
(lp1732
g1697
ag1432
asg25
Nsg1697
g0
(g26
g2
Ntp1733
Rp1734
(dp1735
g24
I00
sg30
I01
sg31
I00
sg32
VSiStripLatencyRcd
p1736
sbsg1432
g0
(g26
g2
Ntp1737
Rp1738
(dp1739
g24
I00
sg30
I00
sg31
I00
sg32
g43
sbsbsg31
I00
sg1727
g0
(g201
g2
Ntp1740
Rp1741
(dp1742
g24
I00
sg30
I01
sg31
I00
sg18
(lp1743
g1697
ag1432
asg25
Nsg1697
g0
(g26
g2
Ntp1744
Rp1745
(dp1746
g24
I00
sg30
I01
sg31
I00
sg32
VSiStripBackPlaneCorrectionRcd
p1747
sbsg1432
g0
(g26
g2
Ntp1748
Rp1749
(dp1750
g24
I00
sg30
I00
sg31
I00
sg32
Vpeak
p1751
sbsbsg1728
g0
(g201
g2
Ntp1752
Rp1753
(dp1754
g24
I00
sg30
I01
sg31
I00
sg18
(lp1755
g1697
ag1432
asg25
Nsg1697
g0
(g26
g2
Ntp1756
Rp1757
(dp1758
g24
I00
sg30
I01
sg31
I00
sg32
g1747
sbsg1432
g0
(g26
g2
Ntp1759
Rp1760
(dp1761
g24
I00
sg30
I00
sg31
I00
sg32
Vdeconvolution
p1762
sbsbsg44
g66
sg46
I55
sg47
g1720
sbsVsiStripGainESProducer
p1763
g0
(g1415
g2
Ntp1764
Rp1765
(dp1766
g17
VSiStripGainESProducer
p1767
sg18
(lp1768
g530
aVprintDebug
p1769
aVAutomaticNormalization
p1770
aVAPVGain
p1771
asg24
I00
sg25
Nsg530
g0
(g26
g2
Ntp1772
Rp1773
(dp1774
g24
I00
sg30
I01
sg31
I00
sg32
g43
sbsg31
I00
sg1769
g0
(g255
g2
Ntp1775
Rp1776
(dp1777
g24
I00
sg30
I00
sg31
I00
sg32
I00
sbsg1770
g0
(g255
g2
Ntp1778
Rp1779
(dp1780
g24
I00
sg30
I01
sg31
I00
sg32
I00
sbsg1771
g0
(g498
g59
(lp1781
g0
(g201
g2
Ntp1782
Rp1783
(dp1784
g24
I00
sg30
I01
sg31
I00
sg18
(lp1785
VRecord
p1786
aVLabel
p1787
aVNormalizationFactor
p1788
asg25
Nsg1786
g0
(g26
g2
Ntp1789
Rp1790
(dp1791
g24
I00
sg30
I01
sg31
I00
sg32
VSiStripApvGainRcd
p1792
sbsg1787
g0
(g26
g2
Ntp1793
Rp1794
(dp1795
g24
I00
sg30
I00
sg31
I00
sg32
g43
sbsg1788
g0
(g545
g2
Ntp1796
Rp1797
(dp1798
g24
I00
sg30
I00
sg31
I00
sg32
F1.0
sbsbag0
(g201
g2
Ntp1799
Rp1800
(dp1801
g24
I00
sg30
I01
sg31
I00
sg18
(lp1802
g1786
ag1787
ag1788
asg25
Nsg1786
g0
(g26
g2
Ntp1803
Rp1804
(dp1805
g24
I00
sg30
I01
sg31
I00
sg32
VSiStripApvGain2Rcd
p1806
sbsg1787
g0
(g26
g2
Ntp1807
Rp1808
(dp1809
g24
I00
sg30
I00
sg31
I00
sg32
g43
sbsg1788
g0
(g545
g2
Ntp1810
Rp1811
(dp1812
g24
I00
sg30
I00
sg31
I00
sg32
F1.0
sbsbatp1813
Rp1814
(dp1815
g24
I00
sg30
I01
sg31
I00
sg65
I1
sbsg44
g66
sg46
I55
sg47
g1763
sbsVsiStripLorentzAngleDepESProducer
p1816
g0
(g1415
g2
Ntp1817
Rp1818
(dp1819
g17
VSiStripLorentzAngleDepESProducer
p1820
sg18
(lp1821
g1726
aVLorentzAnglePeakMode
p1822
aVLorentzAngleDeconvMode
p1823
asg24
I00
sg25
Nsg1726
g0
(g201
g2
Ntp1824
Rp1825
(dp1826
g24
I00
sg30
I01
sg31
I00
sg18
(lp1827
g1697
ag1432
asg25
Nsg1697
g0
(g26
g2
Ntp1828
Rp1829
(dp1830
g24
I00
sg30
I01
sg31
I00
sg32
g1736
sbsg1432
g0
(g26
g2
Ntp1831
Rp1832
(dp1833
g24
I00
sg30
I00
sg31
I00
sg32
g43
sbsbsg31
I00
sg1822
g0
(g201
g2
Ntp1834
Rp1835
(dp1836
g24
I00
sg30
I01
sg31
I00
sg18
(lp1837
g1697
ag1432
asg25
Nsg1697
g0
(g26
g2
Ntp1838
Rp1839
(dp1840
g24
I00
sg30
I01
sg31
I00
sg32
VSiStripLorentzAngleRcd
p1841
sbsg1432
g0
(g26
g2
Ntp1842
Rp1843
(dp1844
g24
I00
sg30
I00
sg31
I00
sg32
g1751
sbsbsg1823
g0
(g201
g2
Ntp1845
Rp1846
(dp1847
g24
I00
sg30
I01
sg31
I00
sg18
(lp1848
g1697
ag1432
asg25
Nsg1697
g0
(g26
g2
Ntp1849
Rp1850
(dp1851
g24
I00
sg30
I01
sg31
I00
sg32
g1841
sbsg1432
g0
(g26
g2
Ntp1852
Rp1853
(dp1854
g24
I00
sg30
I00
sg31
I00
sg32
g1762
sbsbsg44
g66
sg46
I55
sg47
g1816
sbsVsiStripQualityESProducer
p1855
g0
(g1415
g2
Ntp1856
Rp1857
(dp1858
g17
VSiStripQualityESProducer
p1859
sg18
(lp1860
g530
ag1688
aVReduceGranularity
p1861
aVThresholdForReducedGranularity
p1862
aVPrintDebugOutput
p1863
aVUseEmptyRunInfo
p1864
asg24
I00
sg25
Nsg530
g0
(g26
g2
Ntp1865
Rp1866
(dp1867
g24
I00
sg30
I01
sg31
I00
sg32
g43
sbsg31
I01
sg1688
g0
(g498
g59
(lp1868
g0
(g201
g2
Ntp1869
Rp1870
(dp1871
g24
I00
sg30
I01
sg31
I00
sg18
(lp1872
g1697
ag1698
asg25
Nsg1697
g0
(g26
g2
Ntp1873
Rp1874
(dp1875
g24
I00
sg30
I01
sg31
I00
sg32
VSiStripDetVOffRcd
p1876
sbsg1698
g0
(g26
g2
Ntp1877
Rp1878
(dp1879
g24
I00
sg30
I01
sg31
I00
sg32
g43
sbsbag0
(g201
g2
Ntp1880
Rp1881
(dp1882
g24
I00
sg30
I01
sg31
I00
sg18
(lp1883
g1697
ag1698
asg25
Nsg1697
g0
(g26
g2
Ntp1884
Rp1885
(dp1886
g24
I00
sg30
I01
sg31
I00
sg32
VSiStripDetCablingRcd
p1887
sbsg1698
g0
(g26
g2
Ntp1888
Rp1889
(dp1890
g24
I00
sg30
I01
sg31
I00
sg32
g43
sbsbag0
(g201
g2
Ntp1891
Rp1892
(dp1893
g24
I00
sg30
I01
sg31
I00
sg18
(lp1894
g1697
ag1698
asg25
Nsg1697
g0
(g26
g2
Ntp1895
Rp1896
(dp1897
g24
I00
sg30
I01
sg31
I00
sg32
VRunInfoRcd
p1898
sbsg1698
g0
(g26
g2
Ntp1899
Rp1900
(dp1901
g24
I00
sg30
I01
sg31
I00
sg32
g43
sbsbag0
(g201
g2
Ntp1902
Rp1903
(dp1904
g24
I00
sg30
I01
sg31
I00
sg18
(lp1905
g1697
ag1698
asg25
Nsg1697
g0
(g26
g2
Ntp1906
Rp1907
(dp1908
g24
I00
sg30
I01
sg31
I00
sg32
VSiStripBadChannelRcd
p1909
sbsg1698
g0
(g26
g2
Ntp1910
Rp1911
(dp1912
g24
I00
sg30
I01
sg31
I00
sg32
g43
sbsbag0
(g201
g2
Ntp1913
Rp1914
(dp1915
g24
I00
sg30
I01
sg31
I00
sg18
(lp1916
g1697
ag1698
asg25
Nsg1697
g0
(g26
g2
Ntp1917
Rp1918
(dp1919
g24
I00
sg30
I01
sg31
I00
sg32
VSiStripBadFiberRcd
p1920
sbsg1698
g0
(g26
g2
Ntp1921
Rp1922
(dp1923
g24
I00
sg30
I01
sg31
I00
sg32
g43
sbsbag0
(g201
g2
Ntp1924
Rp1925
(dp1926
g24
I00
sg30
I01
sg31
I00
sg18
(lp1927
g1697
ag1698
asg25
Nsg1697
g0
(g26
g2
Ntp1928
Rp1929
(dp1930
g24
I00
sg30
I01
sg31
I00
sg32
VSiStripBadModuleRcd
p1931
sbsg1698
g0
(g26
g2
Ntp1932
Rp1933
(dp1934
g24
I00
sg30
I01
sg31
I00
sg32
g43
sbsbag0
(g201
g2
Ntp1935
Rp1936
(dp1937
g24
I00
sg30
I01
sg31
I00
sg18
(lp1938
g1697
ag1698
asg25
Nsg1697
g0
(g26
g2
Ntp1939
Rp1940
(dp1941
g24
I00
sg30
I01
sg31
I00
sg32
VSiStripBadStripRcd
p1942
sbsg1698
g0
(g26
g2
Ntp1943
Rp1944
(dp1945
g24
I00
sg30
I01
sg31
I00
sg32
g43
sbsbatp1946
Rp1947
(dp1948
g24
I00
sg30
I01
sg31
I00
sg65
I1
sbsg1861
g0
(g255
g2
Ntp1949
Rp1950
(dp1951
g24
I00
sg30
I01
sg31
I00
sg32
I00
sbsg1862
g0
(g545
g2
Ntp1952
Rp1953
(dp1954
g24
I00
sg30
I01
sg31
I00
sg32
F0.3
sbsg1863
g0
(g255
g2
Ntp1955
Rp1956
(dp1957
g24
I00
sg30
I01
sg31
I00
sg32
I00
sbsg1864
g0
(g255
g2
Ntp1958
Rp1959
(dp1960
g24
I00
sg30
I01
sg31
I00
sg32
I00
sbsg44
g66
sg46
I55
sg47
g1855
sbsVsistripconn
p1961
g0
(g1415
g2
Ntp1962
Rp1963
(dp1964
g17
VSiStripConnectivity
p1965
sg18
(lp1966
sg24
I00
sg25
Nsg31
I00
sg44
g66
sg46
I55
sg47
g1961
sbsVstripCPEESProducer
p1967
g0
(g1415
g2
Ntp1968
Rp1969
(dp1970
g17
g1508
sg18
(lp1971
g1420
ag1510
ag1511
asg24
I00
sg25
Nsg1420
g0
(g26
g2
Ntp1972
Rp1973
(dp1974
g24
I00
sg30
I01
sg31
I00
sg32
VstripCPE
p1975
sbsg31
I00
sg1510
g0
(g26
g2
Ntp1976
Rp1977
(dp1978
g24
I00
sg30
I01
sg31
I00
sg32
VSimpleStripCPE
p1979
sbsg1511
g0
(g201
g2
Ntp1980
Rp1981
(dp1982
g24
I00
sg30
I01
sg31
I00
sg18
(lp1983
sg25
Nsbsg44
g66
sg46
I55
sg47
g1967
sbsVCSCGeometryESModule
p1984
g0
(g1415
g2
Ntp1985
Rp1986
(dp1987
g17
g1984
sg18
(lp1988
VfromDDD
p1989
aVfromDD4hep
p1990
aValignmentsLabel
p1991
ag530
aVuseRealWireGeometry
p1992
aVuseOnlyWiresInME1a
p1993
aVuseGangedStripsInME1a
p1994
aVuseCentreTIOffsets
p1995
aVapplyAlignment
p1996
aVdebugV
p1997
asg24
I00
sg25
Nsg1989
g0
(g255
g2
Ntp1998
Rp1999
(dp2000
g24
I00
sg30
I01
sg31
I00
sg32
I00
sbsg31
I00
sg1990
g0
(g255
g2
Ntp2001
Rp2002
(dp2003
g24
I00
sg30
I01
sg31
I00
sg32
I00
sbsg1991
g0
(g26
g2
Ntp2004
Rp2005
(dp2006
g24
I00
sg30
I01
sg31
I00
sg32
g43
sbsg530
g0
(g26
g2
Ntp2007
Rp2008
(dp2009
g24
I00
sg30
I01
sg31
I00
sg32
g43
sbsg1992
g0
(g255
g2
Ntp2010
Rp2011
(dp2012
g24
I00
sg30
I01
sg31
I00
sg32
I01
sbsg1993
g0
(g255
g2
Ntp2013
Rp2014
(dp2015
g24
I00
sg30
I01
sg31
I00
sg32
I00
sbsg1994
g0
(g255
g2
Ntp2016
Rp2017
(dp2018
g24
I00
sg30
I01
sg31
I00
sg32
I01
sbsg1995
g0
(g255
g2
Ntp2019
Rp2020
(dp2021
g24
I00
sg30
I01
sg31
I00
sg32
I00
sbsg1996
g0
(g255
g2
Ntp2022
Rp2023
(dp2024
g24
I00
sg30
I01
sg31
I00
sg32
I01
sbsg1997
g0
(g255
g2
Ntp2025
Rp2026
(dp2027
g24
I00
sg30
I00
sg31
I00
sg32
I00
sbsg44
g66
sg46
I55
sg47
g1984
sbsVCaloGeometryBuilder
p2028
g0
(g1415
g2
Ntp2029
Rp2030
(dp2031
g17
g2028
sg18
(lp2032
VSelectedCalos
p2033
asg24
I00
sg25
Nsg2033
g0
(g58
g59
(lp2034
VHCAL
p2035
aVZDC
p2036
aVCASTOR
p2037
aVEcalBarrel
p2038
aVEcalEndcap
p2039
aVEcalPreshower
p2040
aVTOWER
p2041
atp2042
Rp2043
(dp2044
g24
I00
sg30
I01
sg31
I00
sg65
I1
sbsg31
I00
sg44
g66
sg46
I55
sg47
g2028
sbsVCaloTopologyBuilder
p2045
g0
(g1415
g2
Ntp2046
Rp2047
(dp2048
g17
g2045
sg18
(lp2049
sg24
I00
sg25
Nsg31
I00
sg44
g66
sg46
I55
sg47
g2045
sbsVCaloTowerGeometryFromDBEP
p2050
g0
(g1415
g2
Ntp2051
Rp2052
(dp2053
g17
g2050
sg18
(lp2054
g1996
asg24
I00
sg25
Nsg1996
g0
(g255
g2
Ntp2055
Rp2056
(dp2057
g24
I00
sg30
I01
sg31
I00
sg32
I00
sbsg31
I00
sg44
g66
sg46
I55
sg47
g2050
sbsVCaloTowerTopologyEP
p2058
g0
(g1415
g2
Ntp2059
Rp2060
(dp2061
g17
g2058
sg18
(lp2062
sg24
I00
sg25
Nsg31
I00
sg44
g66
sg46
I55
sg47
g2058
sbsVCastorGeometryFromDBEP
p2063
g0
(g1415
g2
Ntp2064
Rp2065
(dp2066
g17
g2063
sg18
(lp2067
g1996
asg24
I00
sg25
Nsg1996
g0
(g255
g2
Ntp2068
Rp2069
(dp2070
g24
I00
sg30
I01
sg31
I00
sg32
I00
sbsg31
I00
sg44
g66
sg46
I55
sg47
g2063
sbsVDTGeometryESModule
p2071
g0
(g1415
g2
Ntp2072
Rp2073
(dp2074
g17
g2071
sg18
(lp2075
g1989
ag1990
aVDDDetector
p2076
ag1991
ag530
aVattribute
p2077
aVvalue
p2078
ag1996
asg24
I00
sg25
Nsg1989
g0
(g255
g2
Ntp2079
Rp2080
(dp2081
g24
I00
sg30
I01
sg31
I01
sg32
I00
sbsg31
I01
sg1990
g0
(g255
g2
Ntp2082
Rp2083
(dp2084
g24
I00
sg30
I01
sg31
I00
sg32
I00
sbsg2076
g0
(cFWCore.ParameterSet.Types
ESInputTag
p2085
g2
Ntp2086
Rp2087
(dp2088
g24
I00
sg30
I01
sg31
I00
sV_ESInputTag__moduleLabel
p2089
g43
sV_ESInputTag__data
p2090
g43
sbsg1991
g0
(g26
g2
Ntp2091
Rp2092
(dp2093
g24
I00
sg30
I01
sg31
I00
sg32
g43
sbsg530
g0
(g26
g2
Ntp2094
Rp2095
(dp2096
g24
I00
sg30
I01
sg31
I00
sg32
g43
sbsg2077
g0
(g26
g2
Ntp2097
Rp2098
(dp2099
g24
I00
sg30
I01
sg31
I00
sg32
VMuStructure
p2100
sbsg2078
g0
(g26
g2
Ntp2101
Rp2102
(dp2103
g24
I00
sg30
I01
sg31
I00
sg32
VMuonBarrelDT
p2104
sbsg1996
g0
(g255
g2
Ntp2105
Rp2106
(dp2107
g24
I00
sg30
I01
sg31
I00
sg32
I01
sbsg44
g66
sg46
I55
sg47
g2071
sbsVEcalBarrelGeometryFromDBEP
p2108
g0
(g1415
g2
Ntp2109
Rp2110
(dp2111
g17
g2108
sg18
(lp2112
g1996
asg24
I00
sg25
Nsg1996
g0
(g255
g2
Ntp2113
Rp2114
(dp2115
g24
I00
sg30
I01
sg31
I01
sg32
I01
sbsg31
I01
sg44
g66
sg46
I55
sg47
g2108
sbsVEcalElectronicsMappingBuilder
p2116
g0
(g1415
g2
Ntp2117
Rp2118
(dp2119
g17
g2116
sg18
(lp2120
sg24
I00
sg25
Nsg31
I00
sg44
g66
sg46
I55
sg47
g2116
sbsVEcalEndcapGeometryFromDBEP
p2121
g0
(g1415
g2
Ntp2122
Rp2123
(dp2124
g17
g2121
sg18
(lp2125
g1996
asg24
I00
sg25
Nsg1996
g0
(g255
g2
Ntp2126
Rp2127
(dp2128
g24
I00
sg30
I01
sg31
I01
sg32
I01
sbsg31
I01
sg44
g66
sg46
I55
sg47
g2121
sbsVEcalPreshowerGeometryFromDBEP
p2129
g0
(g1415
g2
Ntp2130
Rp2131
(dp2132
g17
g2129
sg18
(lp2133
g1996
asg24
I00
sg25
Nsg1996
g0
(g255
g2
Ntp2134
Rp2135
(dp2136
g24
I00
sg30
I01
sg31
I01
sg32
I01
sbsg31
I01
sg44
g66
sg46
I55
sg47
g2129
sbsVEcalTrigTowerConstituentsMapBuilder
p2137
g0
(g1415
g2
Ntp2138
Rp2139
(dp2140
g17
g2137
sg18
(lp2141
VMapFile
p2142
asg24
I00
sg25
Nsg2142
g0
(g26
g2
Ntp2143
Rp2144
(dp2145
g24
I00
sg30
I00
sg31
I00
sg32
VGeometry/EcalMapping/data/EndCap_TTMap.txt
p2146
sbsg31
I00
sg44
g66
sg46
I55
sg47
g2137
sbsVGlobalTrackingGeometryESProducer
p2147
g0
(g1415
g2
Ntp2148
Rp2149
(dp2150
g17
g2147
sg18
(lp2151
sg24
I00
sg25
Nsg31
I00
sg44
g66
sg46
I55
sg47
g2147
sbsVHcalAlignmentEP
p2152
g0
(g1415
g2
Ntp2153
Rp2154
(dp2155
g17
g2152
sg18
(lp2156
sg24
I00
sg25
Nsg31
I00
sg44
g66
sg46
I55
sg47
g2152
sbsVHcalGeometryFromDBEP
p2157
g0
(g1415
g2
Ntp2158
Rp2159
(dp2160
g17
g2157
sg18
(lp2161
g1996
asg24
I00
sg25
Nsg1996
g0
(g255
g2
Ntp2162
Rp2163
(dp2164
g24
I00
sg30
I01
sg31
I01
sg32
I01
sbsg31
I01
sg44
g66
sg46
I55
sg47
g2157
sbsVMuonDetLayerGeometryESProducer
p2165
g0
(g1415
g2
Ntp2166
Rp2167
(dp2168
g17
g2165
sg18
(lp2169
sg24
I00
sg25
Nsg31
I00
sg44
g66
sg46
I55
sg47
g2165
sbsVRPCGeometryESModule
p2170
g0
(g1415
g2
Ntp2171
Rp2172
(dp2173
g17
g2170
sg18
(lp2174
g1989
ag1990
asg24
I00
sg25
Nsg1989
g0
(g255
g2
Ntp2175
Rp2176
(dp2177
g24
I00
sg30
I00
sg31
I00
sg32
I00
sbsg31
I00
sg1990
g0
(g255
g2
Ntp2178
Rp2179
(dp2180
g24
I00
sg30
I00
sg31
I00
sg32
I00
sbsg44
g66
sg46
I55
sg47
g2170
sbsVTrackerAdditionalParametersPerDet
p2181
g0
(g1415
g2
Ntp2182
Rp2183
(dp2184
g17
VTrackerAdditionalParametersPerDetESModule
p2185
sg18
(lp2186
g530
asg24
I00
sg25
Nsg530
g0
(g26
g2
Ntp2187
Rp2188
(dp2189
g24
I00
sg30
I01
sg31
I00
sg32
g43
sbsg31
I00
sg44
g66
sg46
I55
sg47
g2181
sbsVTrackerRecoGeometryESProducer
p2190
g0
(g1415
g2
Ntp2191
Rp2192
(dp2193
g17
g2190
sg18
(lp2194
VusePhase2Stacks
p2195
asg24
I00
sg25
Nsg2195
g0
(g255
g2
Ntp2196
Rp2197
(dp2198
g24
I00
sg30
I01
sg31
I00
sg32
I00
sbsg31
I00
sg44
g66
sg46
I55
sg47
g2190
sbsVZdcGeometryFromDBEP
p2199
g0
(g1415
g2
Ntp2200
Rp2201
(dp2202
g17
g2199
sg18
(lp2203
g1996
asg24
I00
sg25
Nsg1996
g0
(g255
g2
Ntp2204
Rp2205
(dp2206
g24
I00
sg30
I01
sg31
I00
sg32
I00
sbsg31
I00
sg44
g66
sg46
I55
sg47
g2199
sbsVfakeForIdealAlignment
p2207
g0
(g1415
g2
Ntp2208
Rp2209
(dp2210
g17
VFakeAlignmentProducer
p2211
sg18
(lp2212
g530
asg24
I00
sg25
Nsg530
g0
(g26
g2
Ntp2213
Rp2214
(dp2215
g24
I00
sg30
I01
sg31
I01
sg32
VfakeForIdeal
p2216
sbsg31
I01
sg44
V/cvmfs/cms.cern.ch/slc7_amd64_gcc10/cms/cmssw/CMSSW_12_4_3/python/Alignment/CommonAlignmentProducer/fakeForIdealAlignmentProducer_cfi.py
p2217
sg46
I5
sg47
g2207
sbsVhcalDDDRecConstants
p2218
g0
(g1415
g2
Ntp2219
Rp2220
(dp2221
g17
VHcalDDDRecConstantsESModule
p2222
sg18
(lp2223
g530
asg24
I00
sg25
Nsg530
g0
(g26
g2
Ntp2224
Rp2225
(dp2226
g24
I00
sg30
I01
sg31
I00
sg32
g43
sbsg31
I00
sg44
g66
sg46
I55
sg47
g2218
sbsVhcalDDDSimConstants
p2227
g0
(g1415
g2
Ntp2228
Rp2229
(dp2230
g17
VHcalDDDSimConstantsESModule
p2231
sg18
(lp2232
g530
asg24
I00
sg25
Nsg530
g0
(g26
g2
Ntp2233
Rp2234
(dp2235
g24
I00
sg30
I01
sg31
I00
sg32
g43
sbsg31
I00
sg44
g66
sg46
I55
sg47
g2227
sbsVhcalTopologyIdeal
p2236
g0
(g1415
g2
Ntp2237
Rp2238
(dp2239
g17
VHcalTopologyIdealEP
p2240
sg18
(lp2241
VExclude
p2242
aVMergePosition
p2243
ag530
asg24
I00
sg25
Nsg2242
g0
(g26
g2
Ntp2244
Rp2245
(dp2246
g24
I00
sg30
I00
sg31
I00
sg32
g43
sbsg31
I00
sg2243
g0
(g255
g2
Ntp2247
Rp2248
(dp2249
g24
I00
sg30
I00
sg31
I00
sg32
I00
sbsg530
g0
(g26
g2
Ntp2250
Rp2251
(dp2252
g24
I00
sg30
I01
sg31
I00
sg32
g43
sbsg44
g66
sg46
I55
sg47
g2236
sbsVidealForDigiCSCGeometry
p2253
g0
(g1415
g2
Ntp2254
Rp2255
(dp2256
g17
g1984
sg18
(lp2257
g1989
ag1990
ag1991
ag530
ag1992
ag1993
ag1994
ag1995
ag1996
ag1997
asg24
I00
sg25
Nsg1989
g0
(g255
g2
Ntp2258
Rp2259
(dp2260
g24
I00
sg30
I01
sg31
I00
sg32
I00
sbsg31
I01
sg1990
g0
(g255
g2
Ntp2261
Rp2262
(dp2263
g24
I00
sg30
I01
sg31
I00
sg32
I00
sbsg1991
g0
(g26
g2
Ntp2264
Rp2265
(dp2266
g24
I00
sg30
I01
sg31
I01
sg32
g2216
sbsg530
g0
(g26
g2
Ntp2267
Rp2268
(dp2269
g24
I00
sg30
I01
sg31
I01
sg32
VidealForDigi
p2270
sbsg1992
g0
(g255
g2
Ntp2271
Rp2272
(dp2273
g24
I00
sg30
I01
sg31
I00
sg32
I01
sbsg1993
g0
(g255
g2
Ntp2274
Rp2275
(dp2276
g24
I00
sg30
I01
sg31
I00
sg32
I00
sbsg1994
g0
(g255
g2
Ntp2277
Rp2278
(dp2279
g24
I00
sg30
I01
sg31
I00
sg32
I01
sbsg1995
g0
(g255
g2
Ntp2280
Rp2281
(dp2282
g24
I00
sg30
I01
sg31
I00
sg32
I00
sbsg1996
g0
(g255
g2
Ntp2283
Rp2284
(dp2285
g24
I00
sg30
I01
sg31
I01
sg32
I00
sbsg1997
g0
(g255
g2
Ntp2286
Rp2287
(dp2288
g24
I00
sg30
I00
sg31
I00
sg32
I00
sbsg44
V/cvmfs/cms.cern.ch/slc7_amd64_gcc10/cms/cmssw/CMSSW_12_4_3/python/Geometry/CSCGeometryBuilder/idealForDigiCscGeometryDB_cff.py
p2289
sg46
I8
sg47
g2253
sbsVidealForDigiDTGeometry
p2290
g0
(g1415
g2
Ntp2291
Rp2292
(dp2293
g17
g2071
sg18
(lp2294
g1989
ag1990
ag2076
ag1991
ag530
ag2077
ag2078
ag1996
asg24
I00
sg25
Nsg1989
g0
(g255
g2
Ntp2295
Rp2296
(dp2297
g24
I00
sg30
I01
sg31
I01
sg32
I00
sbsg31
I01
sg1990
g0
(g255
g2
Ntp2298
Rp2299
(dp2300
g24
I00
sg30
I01
sg31
I00
sg32
I00
sbsg2076
g0
(g2085
g2
Ntp2301
Rp2302
(dp2303
g24
I00
sg30
I01
sg31
I00
sg2089
g43
sg2090
g43
sbsg1991
g0
(g26
g2
Ntp2304
Rp2305
(dp2306
g24
I00
sg30
I01
sg31
I01
sg32
g2216
sbsg530
g0
(g26
g2
Ntp2307
Rp2308
(dp2309
g24
I00
sg30
I01
sg31
I01
sg32
g2270
sbsg2077
g0
(g26
g2
Ntp2310
Rp2311
(dp2312
g24
I00
sg30
I01
sg31
I00
sg32
g2100
sbsg2078
g0
(g26
g2
Ntp2313
Rp2314
(dp2315
g24
I00
sg30
I01
sg31
I00
sg32
g2104
sbsg1996
g0
(g255
g2
Ntp2316
Rp2317
(dp2318
g24
I00
sg30
I01
sg31
I01
sg32
I00
sbsg44
V/cvmfs/cms.cern.ch/slc7_amd64_gcc10/cms/cmssw/CMSSW_12_4_3/python/Geometry/DTGeometryBuilder/idealForDigiDtGeometryDB_cff.py
p2319
sg46
I8
sg47
g2290
sbsVidealForDigiTrackerGeometry
p2320
g0
(g1415
g2
Ntp2321
Rp2322
(dp2323
g17
VTrackerDigiGeometryESModule
p2324
sg18
(lp2325
g530
ag1989
ag1996
ag1991
asg24
I00
sg25
Nsg530
g0
(g26
g2
Ntp2326
Rp2327
(dp2328
g24
I00
sg30
I01
sg31
I01
sg32
g2270
sbsg31
I01
sg1989
g0
(g255
g2
Ntp2329
Rp2330
(dp2331
g24
I00
sg30
I01
sg31
I00
sg32
I00
sbsg1996
g0
(g255
g2
Ntp2332
Rp2333
(dp2334
g24
I00
sg30
I01
sg31
I01
sg32
I00
sbsg1991
g0
(g26
g2
Ntp2335
Rp2336
(dp2337
g24
I00
sg30
I01
sg31
I01
sg32
g2216
sbsg44
V/cvmfs/cms.cern.ch/slc7_amd64_gcc10/cms/cmssw/CMSSW_12_4_3/python/Geometry/TrackerGeometryBuilder/idealForDigiTrackerGeometryDB_cff.py
p2338
sg46
I8
sg47
g2320
sbsVmuonGeometryConstants
p2339
g0
(g1415
g2
Ntp2340
Rp2341
(dp2342
g17
VMuonGeometryConstantsESModule
p2343
sg18
(lp2344
g1990
ag530
asg24
I00
sg25
Nsg1990
g0
(g255
g2
Ntp2345
Rp2346
(dp2347
g24
I00
sg30
I01
sg31
I00
sg32
I00
sbsg31
I00
sg530
g0
(g26
g2
Ntp2348
Rp2349
(dp2350
g24
I00
sg30
I01
sg31
I00
sg32
g43
sbsg44
g66
sg46
I55
sg47
g2339
sbsVtrackerGeometryDB
p2351
g0
(g1415
g2
Ntp2352
Rp2353
(dp2354
g17
g2324
sg18
(lp2355
g530
ag1989
ag1996
ag1991
asg24
I00
sg25
Nsg530
g0
(g26
g2
Ntp2356
Rp2357
(dp2358
g24
I00
sg30
I01
sg31
I00
sg32
g43
sbsg31
I00
sg1989
g0
(g255
g2
Ntp2359
Rp2360
(dp2361
g24
I00
sg30
I01
sg31
I00
sg32
I00
sbsg1996
g0
(g255
g2
Ntp2362
Rp2363
(dp2364
g24
I00
sg30
I01
sg31
I00
sg32
I01
sbsg1991
g0
(g26
g2
Ntp2365
Rp2366
(dp2367
g24
I00
sg30
I01
sg31
I00
sg32
g43
sbsg44
g66
sg46
I55
sg47
g2351
sbsVtrackerNumberingGeometryDB
p2368
g0
(g1415
g2
Ntp2369
Rp2370
(dp2371
g17
VTrackerGeometricDetESModule
p2372
sg18
(lp2373
g1989
ag1990
ag530
asg24
I00
sg25
Nsg1989
g0
(g255
g2
Ntp2374
Rp2375
(dp2376
g24
I00
sg30
I01
sg31
I00
sg32
I00
sbsg31
I00
sg1990
g0
(g255
g2
Ntp2377
Rp2378
(dp2379
g24
I00
sg30
I01
sg31
I00
sg32
I00
sbsg530
g0
(g26
g2
Ntp2380
Rp2381
(dp2382
g24
I00
sg30
I01
sg31
I00
sg32
g43
sbsg44
g66
sg46
I55
sg47
g2368
sbsVtrackerTopology
p2383
g0
(g1415
g2
Ntp2384
Rp2385
(dp2386
g17
VTrackerTopologyEP
p2387
sg18
(lp2388
g530
asg24
I00
sg25
Nsg530
g0
(g26
g2
Ntp2389
Rp2390
(dp2391
g24
I00
sg30
I01
sg31
I00
sg32
g43
sbsg31
I00
sg44
g66
sg46
I55
sg47
g2383
sbsVak10PFCHSL1Fastjet
p2392
g0
(g1415
g2
Ntp2393
Rp2394
(dp2395
g17
VL1FastjetCorrectionESProducer
p2396
sg18
(lp2397
Vlevel
p2398
aValgorithm
p2399
aVsrcRho
p2400
asg24
I00
sg25
Nsg2398
g0
(g26
g2
Ntp2401
Rp2402
(dp2403
g24
I00
sg30
I01
sg31
I00
sg32
VL1FastJet
p2404
sbsg31
I00
sg2399
g0
(g26
g2
Ntp2405
Rp2406
(dp2407
g24
I00
sg30
I01
sg31
I01
sg32
VAK10PFchs
p2408
sbsg2400
g0
(g85
g2
Ntp2409
Rp2410
(dp2411
g24
I00
sg30
I01
sg31
I00
sg89
VfixedGridRhoFastjetAll
p2412
sg91
g43
sg92
g43
sbsg44
V/cvmfs/cms.cern.ch/slc7_amd64_gcc10/cms/cmssw/CMSSW_12_4_3/python/JetMETCorrections/Configuration/JetCorrectionServicesAllAlgos_cff.py
p2413
sg46
I79
sg47
g2392
sbsVak10PFCHSL1FastjetL2L3Residual
p2414
g0
(g1415
g2
Ntp2415
Rp2416
(dp2417
g17
VJetCorrectionESChain
p2418
sg18
(lp2419
Vcorrectors
p2420
asg24
I00
sg25
Nsg2420
g0
(g58
g59
(lp2421
g2392
aVak10PFCHSL2Relative
p2422
aVak10PFCHSL3Absolute
p2423
aVak10PFCHSResidual
p2424
atp2425
Rp2426
(dp2427
g24
I00
sg30
I01
sg31
I00
sg65
I1
sbsg31
I00
sg44
g66
sg46
I55
sg47
g2414
sbsVak10PFCHSL1L2L3Residual
p2428
g0
(g1415
g2
Ntp2429
Rp2430
(dp2431
g17
g2418
sg18
(lp2432
g2420
asg24
I00
sg25
Nsg2420
g0
(g58
g59
(lp2433
Vak10PFCHSL1Offset
p2434
ag2422
ag2423
ag2424
atp2435
Rp2436
(dp2437
g24
I00
sg30
I01
sg31
I00
sg65
I1
sbsg31
I00
sg44
g66
sg46
I55
sg47
g2428
sbsg2434
g0
(g1415
g2
Ntp2438
Rp2439
(dp2440
g17
VL1OffsetCorrectionESProducer
p2441
sg18
(lp2442
g2398
ag2399
aVvertexCollection
p2443
aVminVtxNdof
p2444
asg24
I00
sg25
Nsg2398
g0
(g26
g2
Ntp2445
Rp2446
(dp2447
g24
I00
sg30
I01
sg31
I00
sg32
VL1Offset
p2448
sbsg31
I00
sg2399
g0
(g26
g2
Ntp2449
Rp2450
(dp2451
g24
I00
sg30
I01
sg31
I01
sg32
g2408
sbsg2443
g0
(g26
g2
Ntp2452
Rp2453
(dp2454
g24
I00
sg30
I01
sg31
I00
sg32
VofflinePrimaryVertices
p2455
sbsg2444
g0
(g33
g2
Ntp2456
Rp2457
(dp2458
g24
I00
sg30
I01
sg31
I00
sg32
I4
sbsg44
g2413
sg46
I35
sg47
g2434
sbsVak10PFCHSL2L3
p2459
g0
(g1415
g2
Ntp2460
Rp2461
(dp2462
g17
g2418
sg18
(lp2463
g2420
asg24
I00
sg25
Nsg2420
g0
(g58
g59
(lp2464
g2422
ag2423
atp2465
Rp2466
(dp2467
g24
I00
sg30
I01
sg31
I00
sg65
I1
sbsg31
I00
sg44
g66
sg46
I55
sg47
g2459
sbsVak10PFCHSL2L3Residual
p2468
g0
(g1415
g2
Ntp2469
Rp2470
(dp2471
g17
g2418
sg18
(lp2472
g2420
asg24
I00
sg25
Nsg2420
g0
(g58
g59
(lp2473
g2422
ag2423
ag2424
atp2474
Rp2475
(dp2476
g24
I00
sg30
I01
sg31
I00
sg65
I1
sbsg31
I00
sg44
g66
sg46
I55
sg47
g2468
sbsg2422
g0
(g1415
g2
Ntp2477
Rp2478
(dp2479
g17
VLXXXCorrectionESProducer
p2480
sg18
(lp2481
g2398
ag2399
asg24
I00
sg25
Nsg2398
g0
(g26
g2
Ntp2482
Rp2483
(dp2484
g24
I00
sg30
I01
sg31
I00
sg32
VL2Relative
p2485
sbsg31
I00
sg2399
g0
(g26
g2
Ntp2486
Rp2487
(dp2488
g24
I00
sg30
I01
sg31
I01
sg32
g2408
sbsg44
g2413
sg46
I108
sg47
g2422
sbsg2423
g0
(g1415
g2
Ntp2489
Rp2490
(dp2491
g17
g2480
sg18
(lp2492
g2398
ag2399
asg24
I00
sg25
Nsg2398
g0
(g26
g2
Ntp2493
Rp2494
(dp2495
g24
I00
sg30
I01
sg31
I00
sg32
VL3Absolute
p2496
sbsg31
I00
sg2399
g0
(g26
g2
Ntp2497
Rp2498
(dp2499
g24
I00
sg30
I01
sg31
I01
sg32
g2408
sbsg44
g2413
sg46
I136
sg47
g2423
sbsg2424
g0
(g1415
g2
Ntp2500
Rp2501
(dp2502
g17
g2480
sg18
(lp2503
g2398
ag2399
asg24
I00
sg25
Nsg2398
g0
(g26
g2
Ntp2504
Rp2505
(dp2506
g24
I00
sg30
I01
sg31
I00
sg32
VL2L3Residual
p2507
sbsg31
I00
sg2399
g0
(g26
g2
Ntp2508
Rp2509
(dp2510
g24
I00
sg30
I01
sg31
I01
sg32
g2408
sbsg44
g2413
sg46
I164
sg47
g2424
sbsVak10PFL1Fastjet
p2511
g0
(g1415
g2
Ntp2512
Rp2513
(dp2514
g17
g2396
sg18
(lp2515
g2398
ag2399
ag2400
asg24
I00
sg25
Nsg2398
g0
(g26
g2
Ntp2516
Rp2517
(dp2518
g24
I00
sg30
I01
sg31
I00
sg32
g2404
sbsg31
I00
sg2399
g0
(g26
g2
Ntp2519
Rp2520
(dp2521
g24
I00
sg30
I01
sg31
I01
sg32
VAK10PF
p2522
sbsg2400
g0
(g85
g2
Ntp2523
Rp2524
(dp2525
g24
I00
sg30
I01
sg31
I00
sg89
g2412
sg91
g43
sg92
g43
sbsg44
g2413
sg46
I78
sg47
g2511
sbsVak10PFL1FastjetL2L3Residual
p2526
g0
(g1415
g2
Ntp2527
Rp2528
(dp2529
g17
g2418
sg18
(lp2530
g2420
asg24
I00
sg25
Nsg2420
g0
(g58
g59
(lp2531
g2511
aVak10PFL2Relative
p2532
aVak10PFL3Absolute
p2533
aVak10PFResidual
p2534
atp2535
Rp2536
(dp2537
g24
I00
sg30
I01
sg31
I00
sg65
I1
sbsg31
I00
sg44
g66
sg46
I55
sg47
g2526
sbsVak10PFL1L2L3Residual
p2538
g0
(g1415
g2
Ntp2539
Rp2540
(dp2541
g17
g2418
sg18
(lp2542
g2420
asg24
I00
sg25
Nsg2420
g0
(g58
g59
(lp2543
Vak10PFL1Offset
p2544
ag2532
ag2533
ag2534
atp2545
Rp2546
(dp2547
g24
I00
sg30
I01
sg31
I00
sg65
I1
sbsg31
I00
sg44
g66
sg46
I55
sg47
g2538
sbsg2544
g0
(g1415
g2
Ntp2548
Rp2549
(dp2550
g17
g2441
sg18
(lp2551
g2398
ag2399
ag2443
ag2444
asg24
I00
sg25
Nsg2398
g0
(g26
g2
Ntp2552
Rp2553
(dp2554
g24
I00
sg30
I01
sg31
I00
sg32
g2448
sbsg31
I00
sg2399
g0
(g26
g2
Ntp2555
Rp2556
(dp2557
g24
I00
sg30
I01
sg31
I01
sg32
g2522
sbsg2443
g0
(g26
g2
Ntp2558
Rp2559
(dp2560
g24
I00
sg30
I01
sg31
I00
sg32
g2455
sbsg2444
g0
(g33
g2
Ntp2561
Rp2562
(dp2563
g24
I00
sg30
I01
sg31
I00
sg32
I4
sbsg44
g2413
sg46
I34
sg47
g2544
sbsVak10PFL2L3
p2564
g0
(g1415
g2
Ntp2565
Rp2566
(dp2567
g17
g2418
sg18
(lp2568
g2420
asg24
I00
sg25
Nsg2420
g0
(g58
g59
(lp2569
g2532
ag2533
atp2570
Rp2571
(dp2572
g24
I00
sg30
I01
sg31
I00
sg65
I1
sbsg31
I00
sg44
g66
sg46
I55
sg47
g2564
sbsVak10PFL2L3Residual
p2573
g0
(g1415
g2
Ntp2574
Rp2575
(dp2576
g17
g2418
sg18
(lp2577
g2420
asg24
I00
sg25
Nsg2420
g0
(g58
g59
(lp2578
g2532
ag2533
ag2534
atp2579
Rp2580
(dp2581
g24
I00
sg30
I01
sg31
I00
sg65
I1
sbsg31
I00
sg44
g66
sg46
I55
sg47
g2573
sbsg2532
g0
(g1415
g2
Ntp2582
Rp2583
(dp2584
g17
g2480
sg18
(lp2585
g2398
ag2399
asg24
I00
sg25
Nsg2398
g0
(g26
g2
Ntp2586
Rp2587
(dp2588
g24
I00
sg30
I01
sg31
I00
sg32
g2485
sbsg31
I00
sg2399
g0
(g26
g2
Ntp2589
Rp2590
(dp2591
g24
I00
sg30
I01
sg31
I01
sg32
g2522
sbsg44
g2413
sg46
I107
sg47
g2532
sbsg2533
g0
(g1415
g2
Ntp2592
Rp2593
(dp2594
g17
g2480
sg18
(lp2595
g2398
ag2399
asg24
I00
sg25
Nsg2398
g0
(g26
g2
Ntp2596
Rp2597
(dp2598
g24
I00
sg30
I01
sg31
I00
sg32
g2496
sbsg31
I00
sg2399
g0
(g26
g2
Ntp2599
Rp2600
(dp2601
g24
I00
sg30
I01
sg31
I01
sg32
g2522
sbsg44
g2413
sg46
I135
sg47
g2533
sbsg2534
g0
(g1415
g2
Ntp2602
Rp2603
(dp2604
g17
g2480
sg18
(lp2605
g2398
ag2399
asg24
I00
sg25
Nsg2398
g0
(g26
g2
Ntp2606
Rp2607
(dp2608
g24
I00
sg30
I01
sg31
I00
sg32
g2507
sbsg31
I00
sg2399
g0
(g26
g2
Ntp2609
Rp2610
(dp2611
g24
I00
sg30
I01
sg31
I01
sg32
g2522
sbsg44
g2413
sg46
I163
sg47
g2534
sbsVak1PFCHSL1Fastjet
p2612
g0
(g1415
g2
Ntp2613
Rp2614
(dp2615
g17
g2396
sg18
(lp2616
g2398
ag2399
ag2400
asg24
I00
sg25
Nsg2398
g0
(g26
g2
Ntp2617
Rp2618
(dp2619
g24
I00
sg30
I01
sg31
I00
sg32
g2404
sbsg31
I00
sg2399
g0
(g26
g2
Ntp2620
Rp2621
(dp2622
g24
I00
sg30
I01
sg31
I01
sg32
VAK1PFchs
p2623
sbsg2400
g0
(g85
g2
Ntp2624
Rp2625
(dp2626
g24
I00
sg30
I01
sg31
I00
sg89
g2412
sg91
g43
sg92
g43
sbsg44
g2413
sg46
I63
sg47
g2612
sbsVak1PFCHSL1FastjetL2L3Residual
p2627
g0
(g1415
g2
Ntp2628
Rp2629
(dp2630
g17
g2418
sg18
(lp2631
g2420
asg24
I00
sg25
Nsg2420
g0
(g58
g59
(lp2632
g2612
aVak1PFCHSL2Relative
p2633
aVak1PFCHSL3Absolute
p2634
aVak1PFCHSResidual
p2635
atp2636
Rp2637
(dp2638
g24
I00
sg30
I01
sg31
I00
sg65
I1
sbsg31
I00
sg44
g66
sg46
I55
sg47
g2627
sbsVak1PFCHSL1L2L3Residual
p2639
g0
(g1415
g2
Ntp2640
Rp2641
(dp2642
g17
g2418
sg18
(lp2643
g2420
asg24
I00
sg25
Nsg2420
g0
(g58
g59
(lp2644
Vak1PFCHSL1Offset
p2645
ag2633
ag2634
ag2635
atp2646
Rp2647
(dp2648
g24
I00
sg30
I01
sg31
I00
sg65
I1
sbsg31
I00
sg44
g66
sg46
I55
sg47
g2639
sbsg2645
g0
(g1415
g2
Ntp2649
Rp2650
(dp2651
g17
g2441
sg18
(lp2652
g2398
ag2399
ag2443
ag2444
asg24
I00
sg25
Nsg2398
g0
(g26
g2
Ntp2653
Rp2654
(dp2655
g24
I00
sg30
I01
sg31
I00
sg32
g2448
sbsg31
I00
sg2399
g0
(g26
g2
Ntp2656
Rp2657
(dp2658
g24
I00
sg30
I01
sg31
I01
sg32
g2623
sbsg2443
g0
(g26
g2
Ntp2659
Rp2660
(dp2661
g24
I00
sg30
I01
sg31
I00
sg32
g2455
sbsg2444
g0
(g33
g2
Ntp2662
Rp2663
(dp2664
g24
I00
sg30
I01
sg31
I00
sg32
I4
sbsg44
g2413
sg46
I19
sg47
g2645
sbsVak1PFCHSL2L3
p2665
g0
(g1415
g2
Ntp2666
Rp2667
(dp2668
g17
g2418
sg18
(lp2669
g2420
asg24
I00
sg25
Nsg2420
g0
(g58
g59
(lp2670
g2633
ag2634
atp2671
Rp2672
(dp2673
g24
I00
sg30
I01
sg31
I00
sg65
I1
sbsg31
I00
sg44
g66
sg46
I55
sg47
g2665
sbsVak1PFCHSL2L3Residual
p2674
g0
(g1415
g2
Ntp2675
Rp2676
(dp2677
g17
g2418
sg18
(lp2678
g2420
asg24
I00
sg25
Nsg2420
g0
(g58
g59
(lp2679
g2633
ag2634
ag2635
atp2680
Rp2681
(dp2682
g24
I00
sg30
I01
sg31
I00
sg65
I1
sbsg31
I00
sg44
g66
sg46
I55
sg47
g2674
sbsg2633
g0
(g1415
g2
Ntp2683
Rp2684
(dp2685
g17
g2480
sg18
(lp2686
g2398
ag2399
asg24
I00
sg25
Nsg2398
g0
(g26
g2
Ntp2687
Rp2688
(dp2689
g24
I00
sg30
I01
sg31
I00
sg32
g2485
sbsg31
I00
sg2399
g0
(g26
g2
Ntp2690
Rp2691
(dp2692
g24
I00
sg30
I01
sg31
I01
sg32
g2623
sbsg44
g2413
sg46
I92
sg47
g2633
sbsg2634
g0
(g1415
g2
Ntp2693
Rp2694
(dp2695
g17
g2480
sg18
(lp2696
g2398
ag2399
asg24
I00
sg25
Nsg2398
g0
(g26
g2
Ntp2697
Rp2698
(dp2699
g24
I00
sg30
I01
sg31
I00
sg32
g2496
sbsg31
I00
sg2399
g0
(g26
g2
Ntp2700
Rp2701
(dp2702
g24
I00
sg30
I01
sg31
I01
sg32
g2623
sbsg44
g2413
sg46
I120
sg47
g2634
sbsg2635
g0
(g1415
g2
Ntp2703
Rp2704
(dp2705
g17
g2480
sg18
(lp2706
g2398
ag2399
asg24
I00
sg25
Nsg2398
g0
(g26
g2
Ntp2707
Rp2708
(dp2709
g24
I00
sg30
I01
sg31
I00
sg32
g2507
sbsg31
I00
sg2399
g0
(g26
g2
Ntp2710
Rp2711
(dp2712
g24
I00
sg30
I01
sg31
I01
sg32
g2623
sbsg44
g2413
sg46
I148
sg47
g2635
sbsVak1PFL1Fastjet
p2713
g0
(g1415
g2
Ntp2714
Rp2715
(dp2716
g17
g2396
sg18
(lp2717
g2398
ag2399
ag2400
asg24
I00
sg25
Nsg2398
g0
(g26
g2
Ntp2718
Rp2719
(dp2720
g24
I00
sg30
I01
sg31
I00
sg32
g2404
sbsg31
I00
sg2399
g0
(g26
g2
Ntp2721
Rp2722
(dp2723
g24
I00
sg30
I01
sg31
I01
sg32
VAK1PF
p2724
sbsg2400
g0
(g85
g2
Ntp2725
Rp2726
(dp2727
g24
I00
sg30
I01
sg31
I00
sg89
g2412
sg91
g43
sg92
g43
sbsg44
g2413
sg46
I62
sg47
g2713
sbsVak1PFL1FastjetL2L3Residual
p2728
g0
(g1415
g2
Ntp2729
Rp2730
(dp2731
g17
g2418
sg18
(lp2732
g2420
asg24
I00
sg25
Nsg2420
g0
(g58
g59
(lp2733
g2713
aVak1PFL2Relative
p2734
aVak1PFL3Absolute
p2735
aVak1PFResidual
p2736
atp2737
Rp2738
(dp2739
g24
I00
sg30
I01
sg31
I00
sg65
I1
sbsg31
I00
sg44
g66
sg46
I55
sg47
g2728
sbsVak1PFL1L2L3Residual
p2740
g0
(g1415
g2
Ntp2741
Rp2742
(dp2743
g17
g2418
sg18
(lp2744
g2420
asg24
I00
sg25
Nsg2420
g0
(g58
g59
(lp2745
Vak1PFL1Offset
p2746
ag2734
ag2735
ag2736
atp2747
Rp2748
(dp2749
g24
I00
sg30
I01
sg31
I00
sg65
I1
sbsg31
I00
sg44
g66
sg46
I55
sg47
g2740
sbsg2746
g0
(g1415
g2
Ntp2750
Rp2751
(dp2752
g17
g2441
sg18
(lp2753
g2398
ag2399
ag2443
ag2444
asg24
I00
sg25
Nsg2398
g0
(g26
g2
Ntp2754
Rp2755
(dp2756
g24
I00
sg30
I01
sg31
I00
sg32
g2448
sbsg31
I00
sg2399
g0
(g26
g2
Ntp2757
Rp2758
(dp2759
g24
I00
sg30
I01
sg31
I01
sg32
g2724
sbsg2443
g0
(g26
g2
Ntp2760
Rp2761
(dp2762
g24
I00
sg30
I01
sg31
I00
sg32
g2455
sbsg2444
g0
(g33
g2
Ntp2763
Rp2764
(dp2765
g24
I00
sg30
I01
sg31
I00
sg32
I4
sbsg44
g2413
sg46
I18
sg47
g2746
sbsVak1PFL2L3
p2766
g0
(g1415
g2
Ntp2767
Rp2768
(dp2769
g17
g2418
sg18
(lp2770
g2420
asg24
I00
sg25
Nsg2420
g0
(g58
g59
(lp2771
g2734
ag2735
atp2772
Rp2773
(dp2774
g24
I00
sg30
I01
sg31
I00
sg65
I1
sbsg31
I00
sg44
g66
sg46
I55
sg47
g2766
sbsVak1PFL2L3Residual
p2775
g0
(g1415
g2
Ntp2776
Rp2777
(dp2778
g17
g2418
sg18
(lp2779
g2420
asg24
I00
sg25
Nsg2420
g0
(g58
g59
(lp2780
g2734
ag2735
ag2736
atp2781
Rp2782
(dp2783
g24
I00
sg30
I01
sg31
I00
sg65
I1
sbsg31
I00
sg44
g66
sg46
I55
sg47
g2775
sbsg2734
g0
(g1415
g2
Ntp2784
Rp2785
(dp2786
g17
g2480
sg18
(lp2787
g2398
ag2399
asg24
I00
sg25
Nsg2398
g0
(g26
g2
Ntp2788
Rp2789
(dp2790
g24
I00
sg30
I01
sg31
I00
sg32
g2485
sbsg31
I00
sg2399
g0
(g26
g2
Ntp2791
Rp2792
(dp2793
g24
I00
sg30
I01
sg31
I01
sg32
g2724
sbsg44
g2413
sg46
I91
sg47
g2734
sbsg2735
g0
(g1415
g2
Ntp2794
Rp2795
(dp2796
g17
g2480
sg18
(lp2797
g2398
ag2399
asg24
I00
sg25
Nsg2398
g0
(g26
g2
Ntp2798
Rp2799
(dp2800
g24
I00
sg30
I01
sg31
I00
sg32
g2496
sbsg31
I00
sg2399
g0
(g26
g2
Ntp2801
Rp2802
(dp2803
g24
I00
sg30
I01
sg31
I01
sg32
g2724
sbsg44
g2413
sg46
I119
sg47
g2735
sbsg2736
g0
(g1415
g2
Ntp2804
Rp2805
(dp2806
g17
g2480
sg18
(lp2807
g2398
ag2399
asg24
I00
sg25
Nsg2398
g0
(g26
g2
Ntp2808
Rp2809
(dp2810
g24
I00
sg30
I01
sg31
I00
sg32
g2507
sbsg31
I00
sg2399
g0
(g26
g2
Ntp2811
Rp2812
(dp2813
g24
I00
sg30
I01
sg31
I01
sg32
g2724
sbsg44
g2413
sg46
I147
sg47
g2736
sbsVak2PFCHSL1Fastjet
p2814
g0
(g1415
g2
Ntp2815
Rp2816
(dp2817
g17
g2396
sg18
(lp2818
g2398
ag2399
ag2400
asg24
I00
sg25
Nsg2398
g0
(g26
g2
Ntp2819
Rp2820
(dp2821
g24
I00
sg30
I01
sg31
I00
sg32
g2404
sbsg31
I00
sg2399
g0
(g26
g2
Ntp2822
Rp2823
(dp2824
g24
I00
sg30
I01
sg31
I01
sg32
VAK2PFchs
p2825
sbsg2400
g0
(g85
g2
Ntp2826
Rp2827
(dp2828
g24
I00
sg30
I01
sg31
I00
sg89
g2412
sg91
g43
sg92
g43
sbsg44
g2413
sg46
I65
sg47
g2814
sbsVak2PFCHSL1FastjetL2L3Residual
p2829
g0
(g1415
g2
Ntp2830
Rp2831
(dp2832
g17
g2418
sg18
(lp2833
g2420
asg24
I00
sg25
Nsg2420
g0
(g58
g59
(lp2834
g2814
aVak2PFCHSL2Relative
p2835
aVak2PFCHSL3Absolute
p2836
aVak2PFCHSResidual
p2837
atp2838
Rp2839
(dp2840
g24
I00
sg30
I01
sg31
I00
sg65
I1
sbsg31
I00
sg44
g66
sg46
I55
sg47
g2829
sbsVak2PFCHSL1L2L3Residual
p2841
g0
(g1415
g2
Ntp2842
Rp2843
(dp2844
g17
g2418
sg18
(lp2845
g2420
asg24
I00
sg25
Nsg2420
g0
(g58
g59
(lp2846
Vak2PFCHSL1Offset
p2847
ag2835
ag2836
ag2837
atp2848
Rp2849
(dp2850
g24
I00
sg30
I01
sg31
I00
sg65
I1
sbsg31
I00
sg44
g66
sg46
I55
sg47
g2841
sbsg2847
g0
(g1415
g2
Ntp2851
Rp2852
(dp2853
g17
g2441
sg18
(lp2854
g2398
ag2399
ag2443
ag2444
asg24
I00
sg25
Nsg2398
g0
(g26
g2
Ntp2855
Rp2856
(dp2857
g24
I00
sg30
I01
sg31
I00
sg32
g2448
sbsg31
I00
sg2399
g0
(g26
g2
Ntp2858
Rp2859
(dp2860
g24
I00
sg30
I01
sg31
I01
sg32
g2825
sbsg2443
g0
(g26
g2
Ntp2861
Rp2862
(dp2863
g24
I00
sg30
I01
sg31
I00
sg32
g2455
sbsg2444
g0
(g33
g2
Ntp2864
Rp2865
(dp2866
g24
I00
sg30
I01
sg31
I00
sg32
I4
sbsg44
g2413
sg46
I21
sg47
g2847
sbsVak2PFCHSL2L3
p2867
g0
(g1415
g2
Ntp2868
Rp2869
(dp2870
g17
g2418
sg18
(lp2871
g2420
asg24
I00
sg25
Nsg2420
g0
(g58
g59
(lp2872
g2835
ag2836
atp2873
Rp2874
(dp2875
g24
I00
sg30
I01
sg31
I00
sg65
I1
sbsg31
I00
sg44
g66
sg46
I55
sg47
g2867
sbsVak2PFCHSL2L3Residual
p2876
g0
(g1415
g2
Ntp2877
Rp2878
(dp2879
g17
g2418
sg18
(lp2880
g2420
asg24
I00
sg25
Nsg2420
g0
(g58
g59
(lp2881
g2835
ag2836
ag2837
atp2882
Rp2883
(dp2884
g24
I00
sg30
I01
sg31
I00
sg65
I1
sbsg31
I00
sg44
g66
sg46
I55
sg47
g2876
sbsg2835
g0
(g1415
g2
Ntp2885
Rp2886
(dp2887
g17
g2480
sg18
(lp2888
g2398
ag2399
asg24
I00
sg25
Nsg2398
g0
(g26
g2
Ntp2889
Rp2890
(dp2891
g24
I00
sg30
I01
sg31
I00
sg32
g2485
sbsg31
I00
sg2399
g0
(g26
g2
Ntp2892
Rp2893
(dp2894
g24
I00
sg30
I01
sg31
I01
sg32
g2825
sbsg44
g2413
sg46
I94
sg47
g2835
sbsg2836
g0
(g1415
g2
Ntp2895
Rp2896
(dp2897
g17
g2480
sg18
(lp2898
g2398
ag2399
asg24
I00
sg25
Nsg2398
g0
(g26
g2
Ntp2899
Rp2900
(dp2901
g24
I00
sg30
I01
sg31
I00
sg32
g2496
sbsg31
I00
sg2399
g0
(g26
g2
Ntp2902
Rp2903
(dp2904
g24
I00
sg30
I01
sg31
I01
sg32
g2825
sbsg44
g2413
sg46
I122
sg47
g2836
sbsg2837
g0
(g1415
g2
Ntp2905
Rp2906
(dp2907
g17
g2480
sg18
(lp2908
g2398
ag2399
asg24
I00
sg25
Nsg2398
g0
(g26
g2
Ntp2909
Rp2910
(dp2911
g24
I00
sg30
I01
sg31
I00
sg32
g2507
sbsg31
I00
sg2399
g0
(g26
g2
Ntp2912
Rp2913
(dp2914
g24
I00
sg30
I01
sg31
I01
sg32
g2825
sbsg44
g2413
sg46
I150
sg47
g2837
sbsVak2PFL1Fastjet
p2915
g0
(g1415
g2
Ntp2916
Rp2917
(dp2918
g17
g2396
sg18
(lp2919
g2398
ag2399
ag2400
asg24
I00
sg25
Nsg2398
g0
(g26
g2
Ntp2920
Rp2921
(dp2922
g24
I00
sg30
I01
sg31
I00
sg32
g2404
sbsg31
I00
sg2399
g0
(g26
g2
Ntp2923
Rp2924
(dp2925
g24
I00
sg30
I01
sg31
I01
sg32
VAK2PF
p2926
sbsg2400
g0
(g85
g2
Ntp2927
Rp2928
(dp2929
g24
I00
sg30
I01
sg31
I00
sg89
g2412
sg91
g43
sg92
g43
sbsg44
g2413
sg46
I64
sg47
g2915
sbsVak2PFL1FastjetL2L3Residual
p2930
g0
(g1415
g2
Ntp2931
Rp2932
(dp2933
g17
g2418
sg18
(lp2934
g2420
asg24
I00
sg25
Nsg2420
g0
(g58
g59
(lp2935
g2915
aVak2PFL2Relative
p2936
aVak2PFL3Absolute
p2937
aVak2PFResidual
p2938
atp2939
Rp2940
(dp2941
g24
I00
sg30
I01
sg31
I00
sg65
I1
sbsg31
I00
sg44
g66
sg46
I55
sg47
g2930
sbsVak2PFL1L2L3Residual
p2942
g0
(g1415
g2
Ntp2943
Rp2944
(dp2945
g17
g2418
sg18
(lp2946
g2420
asg24
I00
sg25
Nsg2420
g0
(g58
g59
(lp2947
Vak2PFL1Offset
p2948
ag2936
ag2937
ag2938
atp2949
Rp2950
(dp2951
g24
I00
sg30
I01
sg31
I00
sg65
I1
sbsg31
I00
sg44
g66
sg46
I55
sg47
g2942
sbsg2948
g0
(g1415
g2
Ntp2952
Rp2953
(dp2954
g17
g2441
sg18
(lp2955
g2398
ag2399
ag2443
ag2444
asg24
I00
sg25
Nsg2398
g0
(g26
g2
Ntp2956
Rp2957
(dp2958
g24
I00
sg30
I01
sg31
I00
sg32
g2448
sbsg31
I00
sg2399
g0
(g26
g2
Ntp2959
Rp2960
(dp2961
g24
I00
sg30
I01
sg31
I01
sg32
g2926
sbsg2443
g0
(g26
g2
Ntp2962
Rp2963
(dp2964
g24
I00
sg30
I01
sg31
I00
sg32
g2455
sbsg2444
g0
(g33
g2
Ntp2965
Rp2966
(dp2967
g24
I00
sg30
I01
sg31
I00
sg32
I4
sbsg44
g2413
sg46
I20
sg47
g2948
sbsVak2PFL2L3
p2968
g0
(g1415
g2
Ntp2969
Rp2970
(dp2971
g17
g2418
sg18
(lp2972
g2420
asg24
I00
sg25
Nsg2420
g0
(g58
g59
(lp2973
g2936
ag2937
atp2974
Rp2975
(dp2976
g24
I00
sg30
I01
sg31
I00
sg65
I1
sbsg31
I00
sg44
g66
sg46
I55
sg47
g2968
sbsVak2PFL2L3Residual
p2977
g0
(g1415
g2
Ntp2978
Rp2979
(dp2980
g17
g2418
sg18
(lp2981
g2420
asg24
I00
sg25
Nsg2420
g0
(g58
g59
(lp2982
g2936
ag2937
ag2938
atp2983
Rp2984
(dp2985
g24
I00
sg30
I01
sg31
I00
sg65
I1
sbsg31
I00
sg44
g66
sg46
I55
sg47
g2977
sbsg2936
g0
(g1415
g2
Ntp2986
Rp2987
(dp2988
g17
g2480
sg18
(lp2989
g2398
ag2399
asg24
I00
sg25
Nsg2398
g0
(g26
g2
Ntp2990
Rp2991
(dp2992
g24
I00
sg30
I01
sg31
I00
sg32
g2485
sbsg31
I00
sg2399
g0
(g26
g2
Ntp2993
Rp2994
(dp2995
g24
I00
sg30
I01
sg31
I01
sg32
g2926
sbsg44
g2413
sg46
I93
sg47
g2936
sbsg2937
g0
(g1415
g2
Ntp2996
Rp2997
(dp2998
g17
g2480
sg18
(lp2999
g2398
ag2399
asg24
I00
sg25
Nsg2398
g0
(g26
g2
Ntp3000
Rp3001
(dp3002
g24
I00
sg30
I01
sg31
I00
sg32
g2496
sbsg31
I00
sg2399
g0
(g26
g2
Ntp3003
Rp3004
(dp3005
g24
I00
sg30
I01
sg31
I01
sg32
g2926
sbsg44
g2413
sg46
I121
sg47
g2937
sbsg2938
g0
(g1415
g2
Ntp3006
Rp3007
(dp3008
g17
g2480
sg18
(lp3009
g2398
ag2399
asg24
I00
sg25
Nsg2398
g0
(g26
g2
Ntp3010
Rp3011
(dp3012
g24
I00
sg30
I01
sg31
I00
sg32
g2507
sbsg31
I00
sg2399
g0
(g26
g2
Ntp3013
Rp3014
(dp3015
g24
I00
sg30
I01
sg31
I01
sg32
g2926
sbsg44
g2413
sg46
I149
sg47
g2938
sbsVak3PFCHSL1Fastjet
p3016
g0
(g1415
g2
Ntp3017
Rp3018
(dp3019
g17
g2396
sg18
(lp3020
g2398
ag2399
ag2400
asg24
I00
sg25
Nsg2398
g0
(g26
g2
Ntp3021
Rp3022
(dp3023
g24
I00
sg30
I01
sg31
I00
sg32
g2404
sbsg31
I00
sg2399
g0
(g26
g2
Ntp3024
Rp3025
(dp3026
g24
I00
sg30
I01
sg31
I01
sg32
VAK3PFchs
p3027
sbsg2400
g0
(g85
g2
Ntp3028
Rp3029
(dp3030
g24
I00
sg30
I01
sg31
I00
sg89
g2412
sg91
g43
sg92
g43
sbsg44
g2413
sg46
I67
sg47
g3016
sbsVak3PFCHSL1FastjetL2L3Residual
p3031
g0
(g1415
g2
Ntp3032
Rp3033
(dp3034
g17
g2418
sg18
(lp3035
g2420
asg24
I00
sg25
Nsg2420
g0
(g58
g59
(lp3036
g3016
aVak3PFCHSL2Relative
p3037
aVak3PFCHSL3Absolute
p3038
aVak3PFCHSResidual
p3039
atp3040
Rp3041
(dp3042
g24
I00
sg30
I01
sg31
I00
sg65
I1
sbsg31
I00
sg44
g66
sg46
I55
sg47
g3031
sbsVak3PFCHSL1L2L3Residual
p3043
g0
(g1415
g2
Ntp3044
Rp3045
(dp3046
g17
g2418
sg18
(lp3047
g2420
asg24
I00
sg25
Nsg2420
g0
(g58
g59
(lp3048
Vak3PFCHSL1Offset
p3049
ag3037
ag3038
ag3039
atp3050
Rp3051
(dp3052
g24
I00
sg30
I01
sg31
I00
sg65
I1
sbsg31
I00
sg44
g66
sg46
I55
sg47
g3043
sbsg3049
g0
(g1415
g2
Ntp3053
Rp3054
(dp3055
g17
g2441
sg18
(lp3056
g2398
ag2399
ag2443
ag2444
asg24
I00
sg25
Nsg2398
g0
(g26
g2
Ntp3057
Rp3058
(dp3059
g24
I00
sg30
I01
sg31
I00
sg32
g2448
sbsg31
I00
sg2399
g0
(g26
g2
Ntp3060
Rp3061
(dp3062
g24
I00
sg30
I01
sg31
I01
sg32
g3027
sbsg2443
g0
(g26
g2
Ntp3063
Rp3064
(dp3065
g24
I00
sg30
I01
sg31
I00
sg32
g2455
sbsg2444
g0
(g33
g2
Ntp3066
Rp3067
(dp3068
g24
I00
sg30
I01
sg31
I00
sg32
I4
sbsg44
g2413
sg46
I23
sg47
g3049
sbsVak3PFCHSL2L3
p3069
g0
(g1415
g2
Ntp3070
Rp3071
(dp3072
g17
g2418
sg18
(lp3073
g2420
asg24
I00
sg25
Nsg2420
g0
(g58
g59
(lp3074
g3037
ag3038
atp3075
Rp3076
(dp3077
g24
I00
sg30
I01
sg31
I00
sg65
I1
sbsg31
I00
sg44
g66
sg46
I55
sg47
g3069
sbsVak3PFCHSL2L3Residual
p3078
g0
(g1415
g2
Ntp3079
Rp3080
(dp3081
g17
g2418
sg18
(lp3082
g2420
asg24
I00
sg25
Nsg2420
g0
(g58
g59
(lp3083
g3037
ag3038
ag3039
atp3084
Rp3085
(dp3086
g24
I00
sg30
I01
sg31
I00
sg65
I1
sbsg31
I00
sg44
g66
sg46
I55
sg47
g3078
sbsg3037
g0
(g1415
g2
Ntp3087
Rp3088
(dp3089
g17
g2480
sg18
(lp3090
g2398
ag2399
asg24
I00
sg25
Nsg2398
g0
(g26
g2
Ntp3091
Rp3092
(dp3093
g24
I00
sg30
I01
sg31
I00
sg32
g2485
sbsg31
I00
sg2399
g0
(g26
g2
Ntp3094
Rp3095
(dp3096
g24
I00
sg30
I01
sg31
I01
sg32
g3027
sbsg44
g2413
sg46
I96
sg47
g3037
sbsg3038
g0
(g1415
g2
Ntp3097
Rp3098
(dp3099
g17
g2480
sg18
(lp3100
g2398
ag2399
asg24
I00
sg25
Nsg2398
g0
(g26
g2
Ntp3101
Rp3102
(dp3103
g24
I00
sg30
I01
sg31
I00
sg32
g2496
sbsg31
I00
sg2399
g0
(g26
g2
Ntp3104
Rp3105
(dp3106
g24
I00
sg30
I01
sg31
I01
sg32
g3027
sbsg44
g2413
sg46
I124
sg47
g3038
sbsg3039
g0
(g1415
g2
Ntp3107
Rp3108
(dp3109
g17
g2480
sg18
(lp3110
g2398
ag2399
asg24
I00
sg25
Nsg2398
g0
(g26
g2
Ntp3111
Rp3112
(dp3113
g24
I00
sg30
I01
sg31
I00
sg32
g2507
sbsg31
I00
sg2399
g0
(g26
g2
Ntp3114
Rp3115
(dp3116
g24
I00
sg30
I01
sg31
I01
sg32
g3027
sbsg44
g2413
sg46
I152
sg47
g3039
sbsVak3PFL1Fastjet
p3117
g0
(g1415
g2
Ntp3118
Rp3119
(dp3120
g17
g2396
sg18
(lp3121
g2398
ag2399
ag2400
asg24
I00
sg25
Nsg2398
g0
(g26
g2
Ntp3122
Rp3123
(dp3124
g24
I00
sg30
I01
sg31
I00
sg32
g2404
sbsg31
I00
sg2399
g0
(g26
g2
Ntp3125
Rp3126
(dp3127
g24
I00
sg30
I01
sg31
I01
sg32
VAK3PF
p3128
sbsg2400
g0
(g85
g2
Ntp3129
Rp3130
(dp3131
g24
I00
sg30
I01
sg31
I00
sg89
g2412
sg91
g43
sg92
g43
sbsg44
g2413
sg46
I66
sg47
g3117
sbsVak3PFL1FastjetL2L3Residual
p3132
g0
(g1415
g2
Ntp3133
Rp3134
(dp3135
g17
g2418
sg18
(lp3136
g2420
asg24
I00
sg25
Nsg2420
g0
(g58
g59
(lp3137
g3117
aVak3PFL2Relative
p3138
aVak3PFL3Absolute
p3139
aVak3PFResidual
p3140
atp3141
Rp3142
(dp3143
g24
I00
sg30
I01
sg31
I00
sg65
I1
sbsg31
I00
sg44
g66
sg46
I55
sg47
g3132
sbsVak3PFL1L2L3Residual
p3144
g0
(g1415
g2
Ntp3145
Rp3146
(dp3147
g17
g2418
sg18
(lp3148
g2420
asg24
I00
sg25
Nsg2420
g0
(g58
g59
(lp3149
Vak3PFL1Offset
p3150
ag3138
ag3139
ag3140
atp3151
Rp3152
(dp3153
g24
I00
sg30
I01
sg31
I00
sg65
I1
sbsg31
I00
sg44
g66
sg46
I55
sg47
g3144
sbsg3150
g0
(g1415
g2
Ntp3154
Rp3155
(dp3156
g17
g2441
sg18
(lp3157
g2398
ag2399
ag2443
ag2444
asg24
I00
sg25
Nsg2398
g0
(g26
g2
Ntp3158
Rp3159
(dp3160
g24
I00
sg30
I01
sg31
I00
sg32
g2448
sbsg31
I00
sg2399
g0
(g26
g2
Ntp3161
Rp3162
(dp3163
g24
I00
sg30
I01
sg31
I01
sg32
g3128
sbsg2443
g0
(g26
g2
Ntp3164
Rp3165
(dp3166
g24
I00
sg30
I01
sg31
I00
sg32
g2455
sbsg2444
g0
(g33
g2
Ntp3167
Rp3168
(dp3169
g24
I00
sg30
I01
sg31
I00
sg32
I4
sbsg44
g2413
sg46
I22
sg47
g3150
sbsVak3PFL2L3
p3170
g0
(g1415
g2
Ntp3171
Rp3172
(dp3173
g17
g2418
sg18
(lp3174
g2420
asg24
I00
sg25
Nsg2420
g0
(g58
g59
(lp3175
g3138
ag3139
atp3176
Rp3177
(dp3178
g24
I00
sg30
I01
sg31
I00
sg65
I1
sbsg31
I00
sg44
g66
sg46
I55
sg47
g3170
sbsVak3PFL2L3Residual
p3179
g0
(g1415
g2
Ntp3180
Rp3181
(dp3182
g17
g2418
sg18
(lp3183
g2420
asg24
I00
sg25
Nsg2420
g0
(g58
g59
(lp3184
g3138
ag3139
ag3140
atp3185
Rp3186
(dp3187
g24
I00
sg30
I01
sg31
I00
sg65
I1
sbsg31
I00
sg44
g66
sg46
I55
sg47
g3179
sbsg3138
g0
(g1415
g2
Ntp3188
Rp3189
(dp3190
g17
g2480
sg18
(lp3191
g2398
ag2399
asg24
I00
sg25
Nsg2398
g0
(g26
g2
Ntp3192
Rp3193
(dp3194
g24
I00
sg30
I01
sg31
I00
sg32
g2485
sbsg31
I00
sg2399
g0
(g26
g2
Ntp3195
Rp3196
(dp3197
g24
I00
sg30
I01
sg31
I01
sg32
g3128
sbsg44
g2413
sg46
I95
sg47
g3138
sbsg3139
g0
(g1415
g2
Ntp3198
Rp3199
(dp3200
g17
g2480
sg18
(lp3201
g2398
ag2399
asg24
I00
sg25
Nsg2398
g0
(g26
g2
Ntp3202
Rp3203
(dp3204
g24
I00
sg30
I01
sg31
I00
sg32
g2496
sbsg31
I00
sg2399
g0
(g26
g2
Ntp3205
Rp3206
(dp3207
g24
I00
sg30
I01
sg31
I01
sg32
g3128
sbsg44
g2413
sg46
I123
sg47
g3139
sbsg3140
g0
(g1415
g2
Ntp3208
Rp3209
(dp3210
g17
g2480
sg18
(lp3211
g2398
ag2399
asg24
I00
sg25
Nsg2398
g0
(g26
g2
Ntp3212
Rp3213
(dp3214
g24
I00
sg30
I01
sg31
I00
sg32
g2507
sbsg31
I00
sg2399
g0
(g26
g2
Ntp3215
Rp3216
(dp3217
g24
I00
sg30
I01
sg31
I01
sg32
g3128
sbsg44
g2413
sg46
I151
sg47
g3140
sbsVak4CaloL1FastL2L3
p3218
g0
(g1415
g2
Ntp3219
Rp3220
(dp3221
g17
g2418
sg18
(lp3222
g2420
asg24
I00
sg25
Nsg2420
g0
(g58
g59
(lp3223
Vak4CaloL1Fastjet
p3224
aVak4CaloL2Relative
p3225
aVak4CaloL3Absolute
p3226
atp3227
Rp3228
(dp3229
g24
I00
sg30
I01
sg31
I00
sg65
I1
sbsg31
I00
sg44
V/cvmfs/cms.cern.ch/slc7_amd64_gcc10/cms/cmssw/CMSSW_12_4_3/python/JetMETCorrections/Configuration/JetCorrectionServices_cff.py
p3230
sg46
I210
sg47
g3218
sbsVak4CaloL1FastL2L3L6
p3231
g0
(g1415
g2
Ntp3232
Rp3233
(dp3234
g17
g2418
sg18
(lp3235
g2420
asg24
I00
sg25
Nsg2420
g0
(g58
g59
(lp3236
g3224
ag3225
ag3226
aVak4CaloL6SLB
p3237
atp3238
Rp3239
(dp3240
g24
I00
sg30
I01
sg31
I00
sg65
I1
sbsg31
I00
sg44
g3230
sg46
I250
sg47
g3231
sbsVak4CaloL1FastL2L3Residual
p3241
g0
(g1415
g2
Ntp3242
Rp3243
(dp3244
g17
g2418
sg18
(lp3245
g2420
asg24
I00
sg25
Nsg2420
g0
(g58
g59
(lp3246
g3224
ag3225
ag3226
aVak4CaloResidual
p3247
atp3248
Rp3249
(dp3250
g24
I00
sg30
I01
sg31
I00
sg65
I1
sbsg31
I00
sg44
g66
sg46
I55
sg47
g3241
sbsg3224
g0
(g1415
g2
Ntp3251
Rp3252
(dp3253
g17
g2396
sg18
(lp3254
g2398
ag2399
ag2400
asg24
I00
sg25
Nsg2398
g0
(g26
g2
Ntp3255
Rp3256
(dp3257
g24
I00
sg30
I01
sg31
I00
sg32
g2404
sbsg31
I00
sg2399
g0
(g26
g2
Ntp3258
Rp3259
(dp3260
g24
I00
sg30
I01
sg31
I00
sg32
VAK5Calo
p3261
sbsg2400
g0
(g85
g2
Ntp3262
Rp3263
(dp3264
g24
I00
sg30
I01
sg31
I00
sg89
VfixedGridRhoFastjetAllCalo
p3265
sg91
g43
sg92
g43
sbsg44
g66
sg46
I55
sg47
g3224
sbsVak4CaloL1L2L3
p3266
g0
(g1415
g2
Ntp3267
Rp3268
(dp3269
g17
g2418
sg18
(lp3270
g2420
asg24
I00
sg25
Nsg2420
g0
(g58
g59
(lp3271
Vak4CaloL1Offset
p3272
ag3225
ag3226
atp3273
Rp3274
(dp3275
g24
I00
sg30
I01
sg31
I00
sg65
I1
sbsg31
I00
sg44
g66
sg46
I55
sg47
g3266
sbsVak4CaloL1L2L3Residual
p3276
g0
(g1415
g2
Ntp3277
Rp3278
(dp3279
g17
g2418
sg18
(lp3280
g2420
asg24
I00
sg25
Nsg2420
g0
(g58
g59
(lp3281
g3272
ag3225
ag3226
ag3247
atp3282
Rp3283
(dp3284
g24
I00
sg30
I01
sg31
I00
sg65
I1
sbsg31
I00
sg44
g66
sg46
I55
sg47
g3276
sbsg3272
g0
(g1415
g2
Ntp3285
Rp3286
(dp3287
g17
g2441
sg18
(lp3288
g2398
ag2399
ag2443
ag2444
asg24
I00
sg25
Nsg2398
g0
(g26
g2
Ntp3289
Rp3290
(dp3291
g24
I00
sg30
I01
sg31
I00
sg32
g2448
sbsg31
I00
sg2399
g0
(g26
g2
Ntp3292
Rp3293
(dp3294
g24
I00
sg30
I01
sg31
I00
sg32
g3261
sbsg2443
g0
(g26
g2
Ntp3295
Rp3296
(dp3297
g24
I00
sg30
I01
sg31
I00
sg32
g2455
sbsg2444
g0
(g33
g2
Ntp3298
Rp3299
(dp3300
g24
I00
sg30
I01
sg31
I00
sg32
I4
sbsg44
g66
sg46
I55
sg47
g3272
sbsVak4CaloL2L3
p3301
g0
(g1415
g2
Ntp3302
Rp3303
(dp3304
g17
g2418
sg18
(lp3305
g2420
asg24
I00
sg25
Nsg2420
g0
(g58
g59
(lp3306
g3225
ag3226
atp3307
Rp3308
(dp3309
g24
I00
sg30
I01
sg31
I00
sg65
I1
sbsg31
I00
sg44
g66
sg46
I55
sg47
g3301
sbsVak4CaloL2L3L6
p3310
g0
(g1415
g2
Ntp3311
Rp3312
(dp3313
g17
g2418
sg18
(lp3314
g2420
asg24
I00
sg25
Nsg2420
g0
(g58
g59
(lp3315
g3225
ag3226
ag3237
atp3316
Rp3317
(dp3318
g24
I00
sg30
I01
sg31
I00
sg65
I1
sbsg31
I00
sg44
g3230
sg46
I244
sg47
g3310
sbsVak4CaloL2L3Residual
p3319
g0
(g1415
g2
Ntp3320
Rp3321
(dp3322
g17
g2418
sg18
(lp3323
g2420
asg24
I00
sg25
Nsg2420
g0
(g58
g59
(lp3324
g3225
ag3226
ag3247
atp3325
Rp3326
(dp3327
g24
I00
sg30
I01
sg31
I00
sg65
I1
sbsg31
I00
sg44
g66
sg46
I55
sg47
g3319
sbsg3225
g0
(g1415
g2
Ntp3328
Rp3329
(dp3330
g17
g2480
sg18
(lp3331
g2398
ag2399
asg24
I00
sg25
Nsg2398
g0
(g26
g2
Ntp3332
Rp3333
(dp3334
g24
I00
sg30
I01
sg31
I00
sg32
g2485
sbsg31
I00
sg2399
g0
(g26
g2
Ntp3335
Rp3336
(dp3337
g24
I00
sg30
I01
sg31
I00
sg32
g3261
sbsg44
g66
sg46
I55
sg47
g3225
sbsg3226
g0
(g1415
g2
Ntp3338
Rp3339
(dp3340
g17
g2480
sg18
(lp3341
g2398
ag2399
asg24
I00
sg25
Nsg2398
g0
(g26
g2
Ntp3342
Rp3343
(dp3344
g24
I00
sg30
I01
sg31
I00
sg32
g2496
sbsg31
I00
sg2399
g0
(g26
g2
Ntp3345
Rp3346
(dp3347
g24
I00
sg30
I01
sg31
I00
sg32
g3261
sbsg44
g66
sg46
I55
sg47
g3226
sbsg3237
g0
(g1415
g2
Ntp3348
Rp3349
(dp3350
g17
VL6SLBCorrectionESProducer
p3351
sg18
(lp3352
g2398
ag2399
aVaddMuonToJet
p3353
aVsrcBTagInfoElectron
p3354
aVsrcBTagInfoMuon
p3355
asg24
I00
sg25
Nsg2398
g0
(g26
g2
Ntp3356
Rp3357
(dp3358
g24
I00
sg30
I01
sg31
I00
sg32
VL6SLB
p3359
sbsg31
I00
sg2399
g0
(g26
g2
Ntp3360
Rp3361
(dp3362
g24
I00
sg30
I01
sg31
I00
sg32
g43
sbsg3353
g0
(g255
g2
Ntp3363
Rp3364
(dp3365
g24
I00
sg30
I01
sg31
I00
sg32
I01
sbsg3354
g0
(g85
g2
Ntp3366
Rp3367
(dp3368
g24
I00
sg30
I01
sg31
I00
sg89
Vak4CaloJetsSoftElectronTagInfos
p3369
sg91
g43
sg92
g43
sbsg3355
g0
(g85
g2
Ntp3370
Rp3371
(dp3372
g24
I00
sg30
I01
sg31
I00
sg89
Vak4CaloJetsSoftMuonTagInfos
p3373
sg91
g43
sg92
g43
sbsg44
g66
sg46
I55
sg47
g3237
sbsg3247
g0
(g1415
g2
Ntp3374
Rp3375
(dp3376
g17
g2480
sg18
(lp3377
g2398
ag2399
asg24
I00
sg25
Nsg2398
g0
(g26
g2
Ntp3378
Rp3379
(dp3380
g24
I00
sg30
I01
sg31
I00
sg32
g2507
sbsg31
I00
sg2399
g0
(g26
g2
Ntp3381
Rp3382
(dp3383
g24
I00
sg30
I01
sg31
I00
sg32
g3261
sbsg44
g66
sg46
I55
sg47
g3247
sbsVak4JPTL1FastL2L3
p3384
g0
(g1415
g2
Ntp3385
Rp3386
(dp3387
g17
g2418
sg18
(lp3388
g2420
asg24
I00
sg25
Nsg2420
g0
(g58
g59
(lp3389
Vak4L1JPTFastjet
p3390
aVak4JPTL2Relative
p3391
aVak4JPTL3Absolute
p3392
atp3393
Rp3394
(dp3395
g24
I00
sg30
I01
sg31
I00
sg65
I1
sbsg31
I00
sg44
g66
sg46
I55
sg47
g3384
sbsVak4JPTL1FastL2L3Residual
p3396
g0
(g1415
g2
Ntp3397
Rp3398
(dp3399
g17
g2418
sg18
(lp3400
g2420
asg24
I00
sg25
Nsg2420
g0
(g58
g59
(lp3401
g3390
ag3391
ag3392
aVak4JPTResidual
p3402
atp3403
Rp3404
(dp3405
g24
I00
sg30
I01
sg31
I00
sg65
I1
sbsg31
I00
sg44
g66
sg46
I55
sg47
g3396
sbsVak4JPTL1L2L3
p3406
g0
(g1415
g2
Ntp3407
Rp3408
(dp3409
g17
g2418
sg18
(lp3410
g2420
asg24
I00
sg25
Nsg2420
g0
(g58
g59
(lp3411
Vak4L1JPTOffset
p3412
ag3391
ag3392
atp3413
Rp3414
(dp3415
g24
I00
sg30
I01
sg31
I00
sg65
I1
sbsg31
I00
sg44
g66
sg46
I55
sg47
g3406
sbsVak4JPTL1L2L3Residual
p3416
g0
(g1415
g2
Ntp3417
Rp3418
(dp3419
g17
g2418
sg18
(lp3420
g2420
asg24
I00
sg25
Nsg2420
g0
(g58
g59
(lp3421
g3412
ag3391
ag3392
ag3402
atp3422
Rp3423
(dp3424
g24
I00
sg30
I01
sg31
I00
sg65
I1
sbsg31
I00
sg44
g66
sg46
I55
sg47
g3416
sbsVak4JPTL1Offset
p3425
g0
(g1415
g2
Ntp3426
Rp3427
(dp3428
g17
g2441
sg18
(lp3429
g2398
ag2399
ag2443
ag2444
asg24
I00
sg25
Nsg2398
g0
(g26
g2
Ntp3430
Rp3431
(dp3432
g24
I00
sg30
I01
sg31
I00
sg32
g2448
sbsg31
I00
sg2399
g0
(g26
g2
Ntp3433
Rp3434
(dp3435
g24
I00
sg30
I01
sg31
I01
sg32
VAK4JPT
p3436
sbsg2443
g0
(g26
g2
Ntp3437
Rp3438
(dp3439
g24
I00
sg30
I01
sg31
I00
sg32
g2455
sbsg2444
g0
(g33
g2
Ntp3440
Rp3441
(dp3442
g24
I00
sg30
I01
sg31
I00
sg32
I4
sbsg44
g3230
sg46
I32
sg47
g3425
sbsVak4JPTL2L3
p3443
g0
(g1415
g2
Ntp3444
Rp3445
(dp3446
g17
g2418
sg18
(lp3447
g2420
asg24
I00
sg25
Nsg2420
g0
(g58
g59
(lp3448
g3412
ag3391
ag3392
atp3449
Rp3450
(dp3451
g24
I00
sg30
I01
sg31
I00
sg65
I1
sbsg31
I00
sg44
g66
sg46
I55
sg47
g3443
sbsVak4JPTL2L3Residual
p3452
g0
(g1415
g2
Ntp3453
Rp3454
(dp3455
g17
g2418
sg18
(lp3456
g2420
asg24
I00
sg25
Nsg2420
g0
(g58
g59
(lp3457
g3412
ag3391
ag3392
ag3402
atp3458
Rp3459
(dp3460
g24
I00
sg30
I01
sg31
I00
sg65
I1
sbsg31
I00
sg44
g66
sg46
I55
sg47
g3452
sbsg3391
g0
(g1415
g2
Ntp3461
Rp3462
(dp3463
g17
g2480
sg18
(lp3464
g2398
ag2399
asg24
I00
sg25
Nsg2398
g0
(g26
g2
Ntp3465
Rp3466
(dp3467
g24
I00
sg30
I01
sg31
I00
sg32
g2485
sbsg31
I00
sg2399
g0
(g26
g2
Ntp3468
Rp3469
(dp3470
g24
I00
sg30
I01
sg31
I01
sg32
g3436
sbsg44
g3230
sg46
I78
sg47
g3391
sbsg3392
g0
(g1415
g2
Ntp3471
Rp3472
(dp3473
g17
g2480
sg18
(lp3474
g2398
ag2399
asg24
I00
sg25
Nsg2398
g0
(g26
g2
Ntp3475
Rp3476
(dp3477
g24
I00
sg30
I01
sg31
I00
sg32
g2496
sbsg31
I00
sg2399
g0
(g26
g2
Ntp3478
Rp3479
(dp3480
g24
I00
sg30
I01
sg31
I01
sg32
g3436
sbsg44
g3230
sg46
I89
sg47
g3392
sbsg3402
g0
(g1415
g2
Ntp3481
Rp3482
(dp3483
g17
g2480
sg18
(lp3484
g2398
ag2399
asg24
I00
sg25
Nsg2398
g0
(g26
g2
Ntp3485
Rp3486
(dp3487
g24
I00
sg30
I01
sg31
I00
sg32
g2507
sbsg31
I00
sg2399
g0
(g26
g2
Ntp3488
Rp3489
(dp3490
g24
I00
sg30
I01
sg31
I01
sg32
g3436
sbsg44
g3230
sg46
I100
sg47
g3402
sbsg3390
g0
(g1415
g2
Ntp3491
Rp3492
(dp3493
g17
VL1JPTOffsetCorrectionESProducer
p3494
sg18
(lp3495
g2398
ag2399
aVoffsetService
p3496
asg24
I00
sg25
Nsg2398
g0
(g26
g2
Ntp3497
Rp3498
(dp3499
g24
I00
sg30
I01
sg31
I00
sg32
VL1JPTOffset
p3500
sbsg31
I00
sg2399
g0
(g26
g2
Ntp3501
Rp3502
(dp3503
g24
I00
sg30
I01
sg31
I00
sg32
g3436
sbsg3496
g0
(g26
g2
Ntp3504
Rp3505
(dp3506
g24
I00
sg30
I01
sg31
I00
sg32
g3224
sbsg44
g66
sg46
I55
sg47
g3390
sbsg3412
g0
(g1415
g2
Ntp3507
Rp3508
(dp3509
g17
g3494
sg18
(lp3510
g2398
ag2399
ag3496
asg24
I00
sg25
Nsg2398
g0
(g26
g2
Ntp3511
Rp3512
(dp3513
g24
I00
sg30
I01
sg31
I00
sg32
g3500
sbsg31
I00
sg2399
g0
(g26
g2
Ntp3514
Rp3515
(dp3516
g24
I00
sg30
I01
sg31
I00
sg32
g3436
sbsg3496
g0
(g26
g2
Ntp3517
Rp3518
(dp3519
g24
I00
sg30
I01
sg31
I00
sg32
g3272
sbsg44
g66
sg46
I55
sg47
g3412
sbsVak4PFCHSL1FastL2L3
p3520
g0
(g1415
g2
Ntp3521
Rp3522
(dp3523
g17
g2418
sg18
(lp3524
g2420
asg24
I00
sg25
Nsg2420
g0
(g58
g59
(lp3525
Vak4PFCHSL1Fastjet
p3526
aVak4PFCHSL2Relative
p3527
aVak4PFCHSL3Absolute
p3528
atp3529
Rp3530
(dp3531
g24
I00
sg30
I01
sg31
I00
sg65
I1
sbsg31
I00
sg44
g3230
sg46
I214
sg47
g3520
sbsVak4PFCHSL1FastL2L3Residual
p3532
g0
(g1415
g2
Ntp3533
Rp3534
(dp3535
g17
g2418
sg18
(lp3536
g2420
asg24
I00
sg25
Nsg2420
g0
(g58
g59
(lp3537
g3526
ag3527
ag3528
aVak4PFCHSResidual
p3538
atp3539
Rp3540
(dp3541
g24
I00
sg30
I01
sg31
I00
sg65
I1
sbsg31
I00
sg44
g66
sg46
I55
sg47
g3532
sbsg3526
g0
(g1415
g2
Ntp3542
Rp3543
(dp3544
g17
g2396
sg18
(lp3545
g2398
ag2399
ag2400
asg24
I00
sg25
Nsg2398
g0
(g26
g2
Ntp3546
Rp3547
(dp3548
g24
I00
sg30
I01
sg31
I00
sg32
g2404
sbsg31
I00
sg2399
g0
(g26
g2
Ntp3549
Rp3550
(dp3551
g24
I00
sg30
I01
sg31
I00
sg32
VAK4PFchs
p3552
sbsg2400
g0
(g85
g2
Ntp3553
Rp3554
(dp3555
g24
I00
sg30
I01
sg31
I00
sg89
g2412
sg91
g43
sg92
g43
sbsg44
g66
sg46
I55
sg47
g3526
sbsVak4PFCHSL1L2L3
p3556
g0
(g1415
g2
Ntp3557
Rp3558
(dp3559
g17
g2418
sg18
(lp3560
g2420
asg24
I00
sg25
Nsg2420
g0
(g58
g59
(lp3561
Vak4PFCHSL1Offset
p3562
ag3527
ag3528
atp3563
Rp3564
(dp3565
g24
I00
sg30
I01
sg31
I00
sg65
I1
sbsg31
I00
sg44
g66
sg46
I55
sg47
g3556
sbsVak4PFCHSL1L2L3Residual
p3566
g0
(g1415
g2
Ntp3567
Rp3568
(dp3569
g17
g2418
sg18
(lp3570
g2420
asg24
I00
sg25
Nsg2420
g0
(g58
g59
(lp3571
g3562
ag3527
ag3528
ag3538
atp3572
Rp3573
(dp3574
g24
I00
sg30
I01
sg31
I00
sg65
I1
sbsg31
I00
sg44
g66
sg46
I55
sg47
g3566
sbsg3562
g0
(g1415
g2
Ntp3575
Rp3576
(dp3577
g17
g2441
sg18
(lp3578
g2398
ag2399
ag2443
ag2444
asg24
I00
sg25
Nsg2398
g0
(g26
g2
Ntp3579
Rp3580
(dp3581
g24
I00
sg30
I01
sg31
I00
sg32
g2448
sbsg31
I00
sg2399
g0
(g26
g2
Ntp3582
Rp3583
(dp3584
g24
I00
sg30
I01
sg31
I01
sg32
g3552
sbsg2443
g0
(g26
g2
Ntp3585
Rp3586
(dp3587
g24
I00
sg30
I01
sg31
I00
sg32
g2455
sbsg2444
g0
(g33
g2
Ntp3588
Rp3589
(dp3590
g24
I00
sg30
I01
sg31
I00
sg32
I4
sbsg44
g3230
sg46
I31
sg47
g3562
sbsVak4PFCHSL2L3
p3591
g0
(g1415
g2
Ntp3592
Rp3593
(dp3594
g17
g2418
sg18
(lp3595
g2420
asg24
I00
sg25
Nsg2420
g0
(g58
g59
(lp3596
g3527
ag3528
atp3597
Rp3598
(dp3599
g24
I00
sg30
I01
sg31
I00
sg65
I1
sbsg31
I00
sg44
g66
sg46
I55
sg47
g3591
sbsVak4PFCHSL2L3Residual
p3600
g0
(g1415
g2
Ntp3601
Rp3602
(dp3603
g17
g2418
sg18
(lp3604
g2420
asg24
I00
sg25
Nsg2420
g0
(g58
g59
(lp3605
g3527
ag3528
ag3538
atp3606
Rp3607
(dp3608
g24
I00
sg30
I01
sg31
I00
sg65
I1
sbsg31
I00
sg44
g66
sg46
I55
sg47
g3600
sbsg3527
g0
(g1415
g2
Ntp3609
Rp3610
(dp3611
g17
g2480
sg18
(lp3612
g2398
ag2399
asg24
I00
sg25
Nsg2398
g0
(g26
g2
Ntp3613
Rp3614
(dp3615
g24
I00
sg30
I01
sg31
I00
sg32
g2485
sbsg31
I00
sg2399
g0
(g26
g2
Ntp3616
Rp3617
(dp3618
g24
I00
sg30
I01
sg31
I01
sg32
g3552
sbsg44
g3230
sg46
I77
sg47
g3527
sbsg3528
g0
(g1415
g2
Ntp3619
Rp3620
(dp3621
g17
g2480
sg18
(lp3622
g2398
ag2399
asg24
I00
sg25
Nsg2398
g0
(g26
g2
Ntp3623
Rp3624
(dp3625
g24
I00
sg30
I01
sg31
I00
sg32
g2496
sbsg31
I00
sg2399
g0
(g26
g2
Ntp3626
Rp3627
(dp3628
g24
I00
sg30
I01
sg31
I01
sg32
g3552
sbsg44
g3230
sg46
I88
sg47
g3528
sbsg3538
g0
(g1415
g2
Ntp3629
Rp3630
(dp3631
g17
g2480
sg18
(lp3632
g2398
ag2399
asg24
I00
sg25
Nsg2398
g0
(g26
g2
Ntp3633
Rp3634
(dp3635
g24
I00
sg30
I01
sg31
I00
sg32
g2507
sbsg31
I00
sg2399
g0
(g26
g2
Ntp3636
Rp3637
(dp3638
g24
I00
sg30
I01
sg31
I01
sg32
g3552
sbsg44
g3230
sg46
I99
sg47
g3538
sbsVak4PFL1FastL2L3
p3639
g0
(g1415
g2
Ntp3640
Rp3641
(dp3642
g17
g2418
sg18
(lp3643
g2420
asg24
I00
sg25
Nsg2420
g0
(g58
g59
(lp3644
Vak4PFL1Fastjet
p3645
aVak4PFL2Relative
p3646
aVak4PFL3Absolute
p3647
atp3648
Rp3649
(dp3650
g24
I00
sg30
I01
sg31
I00
sg65
I1
sbsg31
I00
sg44
g3230
sg46
I212
sg47
g3639
sbsVak4PFL1FastL2L3L6
p3651
g0
(g1415
g2
Ntp3652
Rp3653
(dp3654
g17
g2418
sg18
(lp3655
g2420
asg24
I00
sg25
Nsg2420
g0
(g58
g59
(lp3656
g3645
ag3646
ag3647
aVak4PFL6SLB
p3657
atp3658
Rp3659
(dp3660
g24
I00
sg30
I01
sg31
I00
sg65
I1
sbsg31
I00
sg44
g3230
sg46
I252
sg47
g3651
sbsVak4PFL1FastL2L3Residual
p3661
g0
(g1415
g2
Ntp3662
Rp3663
(dp3664
g17
g2418
sg18
(lp3665
g2420
asg24
I00
sg25
Nsg2420
g0
(g58
g59
(lp3666
g3645
ag3646
ag3647
aVak4PFResidual
p3667
atp3668
Rp3669
(dp3670
g24
I00
sg30
I01
sg31
I00
sg65
I1
sbsg31
I00
sg44
g66
sg46
I55
sg47
g3661
sbsg3645
g0
(g1415
g2
Ntp3671
Rp3672
(dp3673
g17
g2396
sg18
(lp3674
g2398
ag2399
ag2400
asg24
I00
sg25
Nsg2398
g0
(g26
g2
Ntp3675
Rp3676
(dp3677
g24
I00
sg30
I01
sg31
I00
sg32
g2404
sbsg31
I00
sg2399
g0
(g26
g2
Ntp3678
Rp3679
(dp3680
g24
I00
sg30
I01
sg31
I00
sg32
VAK4PF
p3681
sbsg2400
g0
(g85
g2
Ntp3682
Rp3683
(dp3684
g24
I00
sg30
I01
sg31
I00
sg89
g2412
sg91
g43
sg92
g43
sbsg44
g66
sg46
I55
sg47
g3645
sbsVak4PFL1L2L3
p3685
g0
(g1415
g2
Ntp3686
Rp3687
(dp3688
g17
g2418
sg18
(lp3689
g2420
asg24
I00
sg25
Nsg2420
g0
(g58
g59
(lp3690
Vak4PFL1Offset
p3691
ag3646
ag3647
atp3692
Rp3693
(dp3694
g24
I00
sg30
I01
sg31
I00
sg65
I1
sbsg31
I00
sg44
g66
sg46
I55
sg47
g3685
sbsVak4PFL1L2L3Residual
p3695
g0
(g1415
g2
Ntp3696
Rp3697
(dp3698
g17
g2418
sg18
(lp3699
g2420
asg24
I00
sg25
Nsg2420
g0
(g58
g59
(lp3700
g3691
ag3646
ag3647
ag3667
atp3701
Rp3702
(dp3703
g24
I00
sg30
I01
sg31
I00
sg65
I1
sbsg31
I00
sg44
g66
sg46
I55
sg47
g3695
sbsg3691
g0
(g1415
g2
Ntp3704
Rp3705
(dp3706
g17
g2441
sg18
(lp3707
g2398
ag2399
ag2443
ag2444
asg24
I00
sg25
Nsg2398
g0
(g26
g2
Ntp3708
Rp3709
(dp3710
g24
I00
sg30
I01
sg31
I00
sg32
g2448
sbsg31
I00
sg2399
g0
(g26
g2
Ntp3711
Rp3712
(dp3713
g24
I00
sg30
I01
sg31
I01
sg32
g3681
sbsg2443
g0
(g26
g2
Ntp3714
Rp3715
(dp3716
g24
I00
sg30
I01
sg31
I00
sg32
g2455
sbsg2444
g0
(g33
g2
Ntp3717
Rp3718
(dp3719
g24
I00
sg30
I01
sg31
I00
sg32
I4
sbsg44
g3230
sg46
I30
sg47
g3691
sbsVak4PFL2L3
p3720
g0
(g1415
g2
Ntp3721
Rp3722
(dp3723
g17
g2418
sg18
(lp3724
g2420
asg24
I00
sg25
Nsg2420
g0
(g58
g59
(lp3725
g3646
ag3647
atp3726
Rp3727
(dp3728
g24
I00
sg30
I01
sg31
I00
sg65
I1
sbsg31
I00
sg44
g66
sg46
I55
sg47
g3720
sbsVak4PFL2L3L6
p3729
g0
(g1415
g2
Ntp3730
Rp3731
(dp3732
g17
g2418
sg18
(lp3733
g2420
asg24
I00
sg25
Nsg2420
g0
(g58
g59
(lp3734
g3646
ag3647
ag3657
atp3735
Rp3736
(dp3737
g24
I00
sg30
I01
sg31
I00
sg65
I1
sbsg31
I00
sg44
g3230
sg46
I246
sg47
g3729
sbsVak4PFL2L3Residual
p3738
g0
(g1415
g2
Ntp3739
Rp3740
(dp3741
g17
g2418
sg18
(lp3742
g2420
asg24
I00
sg25
Nsg2420
g0
(g58
g59
(lp3743
g3646
ag3647
ag3667
atp3744
Rp3745
(dp3746
g24
I00
sg30
I01
sg31
I00
sg65
I1
sbsg31
I00
sg44
g66
sg46
I55
sg47
g3738
sbsg3646
g0
(g1415
g2
Ntp3747
Rp3748
(dp3749
g17
g2480
sg18
(lp3750
g2398
ag2399
asg24
I00
sg25
Nsg2398
g0
(g26
g2
Ntp3751
Rp3752
(dp3753
g24
I00
sg30
I01
sg31
I00
sg32
g2485
sbsg31
I00
sg2399
g0
(g26
g2
Ntp3754
Rp3755
(dp3756
g24
I00
sg30
I01
sg31
I01
sg32
g3681
sbsg44
g3230
sg46
I76
sg47
g3646
sbsg3647
g0
(g1415
g2
Ntp3757
Rp3758
(dp3759
g17
g2480
sg18
(lp3760
g2398
ag2399
asg24
I00
sg25
Nsg2398
g0
(g26
g2
Ntp3761
Rp3762
(dp3763
g24
I00
sg30
I01
sg31
I00
sg32
g2496
sbsg31
I00
sg2399
g0
(g26
g2
Ntp3764
Rp3765
(dp3766
g24
I00
sg30
I01
sg31
I01
sg32
g3681
sbsg44
g3230
sg46
I87
sg47
g3647
sbsg3657
g0
(g1415
g2
Ntp3767
Rp3768
(dp3769
g17
g3351
sg18
(lp3770
g2398
ag2399
ag3353
ag3354
ag3355
asg24
I00
sg25
Nsg2398
g0
(g26
g2
Ntp3771
Rp3772
(dp3773
g24
I00
sg30
I01
sg31
I00
sg32
g3359
sbsg31
I00
sg2399
g0
(g26
g2
Ntp3774
Rp3775
(dp3776
g24
I00
sg30
I01
sg31
I00
sg32
g43
sbsg3353
g0
(g255
g2
Ntp3777
Rp3778
(dp3779
g24
I00
sg30
I01
sg31
I00
sg32
I00
sbsg3354
g0
(g85
g2
Ntp3780
Rp3781
(dp3782
g24
I00
sg30
I01
sg31
I00
sg89
Vak4PFJetsSoftElectronTagInfos
p3783
sg91
g43
sg92
g43
sbsg3355
g0
(g85
g2
Ntp3784
Rp3785
(dp3786
g24
I00
sg30
I01
sg31
I00
sg89
Vak4PFJetsSoftMuonTagInfos
p3787
sg91
g43
sg92
g43
sbsg44
g66
sg46
I55
sg47
g3657
sbsg3667
g0
(g1415
g2
Ntp3788
Rp3789
(dp3790
g17
g2480
sg18
(lp3791
g2398
ag2399
asg24
I00
sg25
Nsg2398
g0
(g26
g2
Ntp3792
Rp3793
(dp3794
g24
I00
sg30
I01
sg31
I00
sg32
g2507
sbsg31
I00
sg2399
g0
(g26
g2
Ntp3795
Rp3796
(dp3797
g24
I00
sg30
I01
sg31
I01
sg32
g3681
sbsg44
g3230
sg46
I98
sg47
g3667
sbsVak4TrackL1FastL2L3
p3798
g0
(g1415
g2
Ntp3799
Rp3800
(dp3801
g17
g2418
sg18
(lp3802
g2420
asg24
I00
sg25
Nsg2420
g0
(g58
g59
(lp3803
g3224
aVak4TrackL2Relative
p3804
aVak4TrackL3Absolute
p3805
atp3806
Rp3807
(dp3808
g24
I00
sg30
I01
sg31
I00
sg65
I1
sbsg31
I00
sg44
g2413
sg46
I619
sg47
g3798
sbsVak4TrackL2L3
p3809
g0
(g1415
g2
Ntp3810
Rp3811
(dp3812
g17
g2418
sg18
(lp3813
g2420
asg24
I00
sg25
Nsg2420
g0
(g58
g59
(lp3814
g3804
ag3805
atp3815
Rp3816
(dp3817
g24
I00
sg30
I01
sg31
I00
sg65
I1
sbsg31
I00
sg44
g66
sg46
I55
sg47
g3809
sbsg3804
g0
(g1415
g2
Ntp3818
Rp3819
(dp3820
g17
g2480
sg18
(lp3821
g2398
ag2399
asg24
I00
sg25
Nsg2398
g0
(g26
g2
Ntp3822
Rp3823
(dp3824
g24
I00
sg30
I01
sg31
I00
sg32
g2485
sbsg31
I00
sg2399
g0
(g26
g2
Ntp3825
Rp3826
(dp3827
g24
I00
sg30
I01
sg31
I01
sg32
VAK5TRK
p3828
sbsg44
g3230
sg46
I79
sg47
g3804
sbsg3805
g0
(g1415
g2
Ntp3829
Rp3830
(dp3831
g17
g2480
sg18
(lp3832
g2398
ag2399
asg24
I00
sg25
Nsg2398
g0
(g26
g2
Ntp3833
Rp3834
(dp3835
g24
I00
sg30
I01
sg31
I00
sg32
g2496
sbsg31
I00
sg2399
g0
(g26
g2
Ntp3836
Rp3837
(dp3838
g24
I00
sg30
I01
sg31
I01
sg32
g3828
sbsg44
g3230
sg46
I90
sg47
g3805
sbsVak5PFCHSL1Fastjet
p3839
g0
(g1415
g2
Ntp3840
Rp3841
(dp3842
g17
g2396
sg18
(lp3843
g2398
ag2399
ag2400
asg24
I00
sg25
Nsg2398
g0
(g26
g2
Ntp3844
Rp3845
(dp3846
g24
I00
sg30
I01
sg31
I00
sg32
g2404
sbsg31
I00
sg2399
g0
(g26
g2
Ntp3847
Rp3848
(dp3849
g24
I00
sg30
I01
sg31
I01
sg32
VAK5PFchs
p3850
sbsg2400
g0
(g85
g2
Ntp3851
Rp3852
(dp3853
g24
I00
sg30
I01
sg31
I00
sg89
g2412
sg91
g43
sg92
g43
sbsg44
g2413
sg46
I69
sg47
g3839
sbsVak5PFCHSL1FastjetL2L3Residual
p3854
g0
(g1415
g2
Ntp3855
Rp3856
(dp3857
g17
g2418
sg18
(lp3858
g2420
asg24
I00
sg25
Nsg2420
g0
(g58
g59
(lp3859
g3839
aVak5PFCHSL2Relative
p3860
aVak5PFCHSL3Absolute
p3861
aVak5PFCHSResidual
p3862
atp3863
Rp3864
(dp3865
g24
I00
sg30
I01
sg31
I00
sg65
I1
sbsg31
I00
sg44
g66
sg46
I55
sg47
g3854
sbsVak5PFCHSL1L2L3Residual
p3866
g0
(g1415
g2
Ntp3867
Rp3868
(dp3869
g17
g2418
sg18
(lp3870
g2420
asg24
I00
sg25
Nsg2420
g0
(g58
g59
(lp3871
Vak5PFCHSL1Offset
p3872
ag3860
ag3861
ag3862
atp3873
Rp3874
(dp3875
g24
I00
sg30
I01
sg31
I00
sg65
I1
sbsg31
I00
sg44
g66
sg46
I55
sg47
g3866
sbsg3872
g0
(g1415
g2
Ntp3876
Rp3877
(dp3878
g17
g2441
sg18
(lp3879
g2398
ag2399
ag2443
ag2444
asg24
I00
sg25
Nsg2398
g0
(g26
g2
Ntp3880
Rp3881
(dp3882
g24
I00
sg30
I01
sg31
I00
sg32
g2448
sbsg31
I00
sg2399
g0
(g26
g2
Ntp3883
Rp3884
(dp3885
g24
I00
sg30
I01
sg31
I01
sg32
g3850
sbsg2443
g0
(g26
g2
Ntp3886
Rp3887
(dp3888
g24
I00
sg30
I01
sg31
I00
sg32
g2455
sbsg2444
g0
(g33
g2
Ntp3889
Rp3890
(dp3891
g24
I00
sg30
I01
sg31
I00
sg32
I4
sbsg44
g2413
sg46
I25
sg47
g3872
sbsVak5PFCHSL2L3
p3892
g0
(g1415
g2
Ntp3893
Rp3894
(dp3895
g17
g2418
sg18
(lp3896
g2420
asg24
I00
sg25
Nsg2420
g0
(g58
g59
(lp3897
g3860
ag3861
atp3898
Rp3899
(dp3900
g24
I00
sg30
I01
sg31
I00
sg65
I1
sbsg31
I00
sg44
g66
sg46
I55
sg47
g3892
sbsVak5PFCHSL2L3Residual
p3901
g0
(g1415
g2
Ntp3902
Rp3903
(dp3904
g17
g2418
sg18
(lp3905
g2420
asg24
I00
sg25
Nsg2420
g0
(g58
g59
(lp3906
g3860
ag3861
ag3862
atp3907
Rp3908
(dp3909
g24
I00
sg30
I01
sg31
I00
sg65
I1
sbsg31
I00
sg44
g66
sg46
I55
sg47
g3901
sbsg3860
g0
(g1415
g2
Ntp3910
Rp3911
(dp3912
g17
g2480
sg18
(lp3913
g2398
ag2399
asg24
I00
sg25
Nsg2398
g0
(g26
g2
Ntp3914
Rp3915
(dp3916
g24
I00
sg30
I01
sg31
I00
sg32
g2485
sbsg31
I00
sg2399
g0
(g26
g2
Ntp3917
Rp3918
(dp3919
g24
I00
sg30
I01
sg31
I01
sg32
g3850
sbsg44
g2413
sg46
I98
sg47
g3860
sbsg3861
g0
(g1415
g2
Ntp3920
Rp3921
(dp3922
g17
g2480
sg18
(lp3923
g2398
ag2399
asg24
I00
sg25
Nsg2398
g0
(g26
g2
Ntp3924
Rp3925
(dp3926
g24
I00
sg30
I01
sg31
I00
sg32
g2496
sbsg31
I00
sg2399
g0
(g26
g2
Ntp3927
Rp3928
(dp3929
g24
I00
sg30
I01
sg31
I01
sg32
g3850
sbsg44
g2413
sg46
I126
sg47
g3861
sbsg3862
g0
(g1415
g2
Ntp3930
Rp3931
(dp3932
g17
g2480
sg18
(lp3933
g2398
ag2399
asg24
I00
sg25
Nsg2398
g0
(g26
g2
Ntp3934
Rp3935
(dp3936
g24
I00
sg30
I01
sg31
I00
sg32
g2507
sbsg31
I00
sg2399
g0
(g26
g2
Ntp3937
Rp3938
(dp3939
g24
I00
sg30
I01
sg31
I01
sg32
g3850
sbsg44
g2413
sg46
I154
sg47
g3862
sbsVak5PFL1Fastjet
p3940
g0
(g1415
g2
Ntp3941
Rp3942
(dp3943
g17
g2396
sg18
(lp3944
g2398
ag2399
ag2400
asg24
I00
sg25
Nsg2398
g0
(g26
g2
Ntp3945
Rp3946
(dp3947
g24
I00
sg30
I01
sg31
I00
sg32
g2404
sbsg31
I00
sg2399
g0
(g26
g2
Ntp3948
Rp3949
(dp3950
g24
I00
sg30
I01
sg31
I01
sg32
VAK5PF
p3951
sbsg2400
g0
(g85
g2
Ntp3952
Rp3953
(dp3954
g24
I00
sg30
I01
sg31
I00
sg89
g2412
sg91
g43
sg92
g43
sbsg44
g2413
sg46
I68
sg47
g3940
sbsVak5PFL1FastjetL2L3Residual
p3955
g0
(g1415
g2
Ntp3956
Rp3957
(dp3958
g17
g2418
sg18
(lp3959
g2420
asg24
I00
sg25
Nsg2420
g0
(g58
g59
(lp3960
g3940
aVak5PFL2Relative
p3961
aVak5PFL3Absolute
p3962
aVak5PFResidual
p3963
atp3964
Rp3965
(dp3966
g24
I00
sg30
I01
sg31
I00
sg65
I1
sbsg31
I00
sg44
g66
sg46
I55
sg47
g3955
sbsVak5PFL1L2L3Residual
p3967
g0
(g1415
g2
Ntp3968
Rp3969
(dp3970
g17
g2418
sg18
(lp3971
g2420
asg24
I00
sg25
Nsg2420
g0
(g58
g59
(lp3972
Vak5PFL1Offset
p3973
ag3961
ag3962
ag3963
atp3974
Rp3975
(dp3976
g24
I00
sg30
I01
sg31
I00
sg65
I1
sbsg31
I00
sg44
g66
sg46
I55
sg47
g3967
sbsg3973
g0
(g1415
g2
Ntp3977
Rp3978
(dp3979
g17
g2441
sg18
(lp3980
g2398
ag2399
ag2443
ag2444
asg24
I00
sg25
Nsg2398
g0
(g26
g2
Ntp3981
Rp3982
(dp3983
g24
I00
sg30
I01
sg31
I00
sg32
g2448
sbsg31
I00
sg2399
g0
(g26
g2
Ntp3984
Rp3985
(dp3986
g24
I00
sg30
I01
sg31
I01
sg32
g3951
sbsg2443
g0
(g26
g2
Ntp3987
Rp3988
(dp3989
g24
I00
sg30
I01
sg31
I00
sg32
g2455
sbsg2444
g0
(g33
g2
Ntp3990
Rp3991
(dp3992
g24
I00
sg30
I01
sg31
I00
sg32
I4
sbsg44
g2413
sg46
I24
sg47
g3973
sbsVak5PFL2L3
p3993
g0
(g1415
g2
Ntp3994
Rp3995
(dp3996
g17
g2418
sg18
(lp3997
g2420
asg24
I00
sg25
Nsg2420
g0
(g58
g59
(lp3998
g3961
ag3962
atp3999
Rp4000
(dp4001
g24
I00
sg30
I01
sg31
I00
sg65
I1
sbsg31
I00
sg44
g66
sg46
I55
sg47
g3993
sbsVak5PFL2L3Residual
p4002
g0
(g1415
g2
Ntp4003
Rp4004
(dp4005
g17
g2418
sg18
(lp4006
g2420
asg24
I00
sg25
Nsg2420
g0
(g58
g59
(lp4007
g3961
ag3962
ag3963
atp4008
Rp4009
(dp4010
g24
I00
sg30
I01
sg31
I00
sg65
I1
sbsg31
I00
sg44
g66
sg46
I55
sg47
g4002
sbsg3961
g0
(g1415
g2
Ntp4011
Rp4012
(dp4013
g17
g2480
sg18
(lp4014
g2398
ag2399
asg24
I00
sg25
Nsg2398
g0
(g26
g2
Ntp4015
Rp4016
(dp4017
g24
I00
sg30
I01
sg31
I00
sg32
g2485
sbsg31
I00
sg2399
g0
(g26
g2
Ntp4018
Rp4019
(dp4020
g24
I00
sg30
I01
sg31
I01
sg32
g3951
sbsg44
g2413
sg46
I97
sg47
g3961
sbsg3962
g0
(g1415
g2
Ntp4021
Rp4022
(dp4023
g17
g2480
sg18
(lp4024
g2398
ag2399
asg24
I00
sg25
Nsg2398
g0
(g26
g2
Ntp4025
Rp4026
(dp4027
g24
I00
sg30
I01
sg31
I00
sg32
g2496
sbsg31
I00
sg2399
g0
(g26
g2
Ntp4028
Rp4029
(dp4030
g24
I00
sg30
I01
sg31
I01
sg32
g3951
sbsg44
g2413
sg46
I125
sg47
g3962
sbsg3963
g0
(g1415
g2
Ntp4031
Rp4032
(dp4033
g17
g2480
sg18
(lp4034
g2398
ag2399
asg24
I00
sg25
Nsg2398
g0
(g26
g2
Ntp4035
Rp4036
(dp4037
g24
I00
sg30
I01
sg31
I00
sg32
g2507
sbsg31
I00
sg2399
g0
(g26
g2
Ntp4038
Rp4039
(dp4040
g24
I00
sg30
I01
sg31
I01
sg32
g3951
sbsg44
g2413
sg46
I153
sg47
g3963
sbsVak6PFCHSL1Fastjet
p4041
g0
(g1415
g2
Ntp4042
Rp4043
(dp4044
g17
g2396
sg18
(lp4045
g2398
ag2399
ag2400
asg24
I00
sg25
Nsg2398
g0
(g26
g2
Ntp4046
Rp4047
(dp4048
g24
I00
sg30
I01
sg31
I00
sg32
g2404
sbsg31
I00
sg2399
g0
(g26
g2
Ntp4049
Rp4050
(dp4051
g24
I00
sg30
I01
sg31
I01
sg32
VAK6PFchs
p4052
sbsg2400
g0
(g85
g2
Ntp4053
Rp4054
(dp4055
g24
I00
sg30
I01
sg31
I00
sg89
g2412
sg91
g43
sg92
g43
sbsg44
g2413
sg46
I71
sg47
g4041
sbsVak6PFCHSL1FastjetL2L3Residual
p4056
g0
(g1415
g2
Ntp4057
Rp4058
(dp4059
g17
g2418
sg18
(lp4060
g2420
asg24
I00
sg25
Nsg2420
g0
(g58
g59
(lp4061
g4041
aVak6PFCHSL2Relative
p4062
aVak6PFCHSL3Absolute
p4063
aVak6PFCHSResidual
p4064
atp4065
Rp4066
(dp4067
g24
I00
sg30
I01
sg31
I00
sg65
I1
sbsg31
I00
sg44
g66
sg46
I55
sg47
g4056
sbsVak6PFCHSL1L2L3Residual
p4068
g0
(g1415
g2
Ntp4069
Rp4070
(dp4071
g17
g2418
sg18
(lp4072
g2420
asg24
I00
sg25
Nsg2420
g0
(g58
g59
(lp4073
Vak6PFCHSL1Offset
p4074
ag4062
ag4063
ag4064
atp4075
Rp4076
(dp4077
g24
I00
sg30
I01
sg31
I00
sg65
I1
sbsg31
I00
sg44
g66
sg46
I55
sg47
g4068
sbsg4074
g0
(g1415
g2
Ntp4078
Rp4079
(dp4080
g17
g2441
sg18
(lp4081
g2398
ag2399
ag2443
ag2444
asg24
I00
sg25
Nsg2398
g0
(g26
g2
Ntp4082
Rp4083
(dp4084
g24
I00
sg30
I01
sg31
I00
sg32
g2448
sbsg31
I00
sg2399
g0
(g26
g2
Ntp4085
Rp4086
(dp4087
g24
I00
sg30
I01
sg31
I01
sg32
g4052
sbsg2443
g0
(g26
g2
Ntp4088
Rp4089
(dp4090
g24
I00
sg30
I01
sg31
I00
sg32
g2455
sbsg2444
g0
(g33
g2
Ntp4091
Rp4092
(dp4093
g24
I00
sg30
I01
sg31
I00
sg32
I4
sbsg44
g2413
sg46
I27
sg47
g4074
sbsVak6PFCHSL2L3
p4094
g0
(g1415
g2
Ntp4095
Rp4096
(dp4097
g17
g2418
sg18
(lp4098
g2420
asg24
I00
sg25
Nsg2420
g0
(g58
g59
(lp4099
g4062
ag4063
atp4100
Rp4101
(dp4102
g24
I00
sg30
I01
sg31
I00
sg65
I1
sbsg31
I00
sg44
g66
sg46
I55
sg47
g4094
sbsVak6PFCHSL2L3Residual
p4103
g0
(g1415
g2
Ntp4104
Rp4105
(dp4106
g17
g2418
sg18
(lp4107
g2420
asg24
I00
sg25
Nsg2420
g0
(g58
g59
(lp4108
g4062
ag4063
ag4064
atp4109
Rp4110
(dp4111
g24
I00
sg30
I01
sg31
I00
sg65
I1
sbsg31
I00
sg44
g66
sg46
I55
sg47
g4103
sbsg4062
g0
(g1415
g2
Ntp4112
Rp4113
(dp4114
g17
g2480
sg18
(lp4115
g2398
ag2399
asg24
I00
sg25
Nsg2398
g0
(g26
g2
Ntp4116
Rp4117
(dp4118
g24
I00
sg30
I01
sg31
I00
sg32
g2485
sbsg31
I00
sg2399
g0
(g26
g2
Ntp4119
Rp4120
(dp4121
g24
I00
sg30
I01
sg31
I01
sg32
g4052
sbsg44
g2413
sg46
I100
sg47
g4062
sbsg4063
g0
(g1415
g2
Ntp4122
Rp4123
(dp4124
g17
g2480
sg18
(lp4125
g2398
ag2399
asg24
I00
sg25
Nsg2398
g0
(g26
g2
Ntp4126
Rp4127
(dp4128
g24
I00
sg30
I01
sg31
I00
sg32
g2496
sbsg31
I00
sg2399
g0
(g26
g2
Ntp4129
Rp4130
(dp4131
g24
I00
sg30
I01
sg31
I01
sg32
g4052
sbsg44
g2413
sg46
I128
sg47
g4063
sbsg4064
g0
(g1415
g2
Ntp4132
Rp4133
(dp4134
g17
g2480
sg18
(lp4135
g2398
ag2399
asg24
I00
sg25
Nsg2398
g0
(g26
g2
Ntp4136
Rp4137
(dp4138
g24
I00
sg30
I01
sg31
I00
sg32
g2507
sbsg31
I00
sg2399
g0
(g26
g2
Ntp4139
Rp4140
(dp4141
g24
I00
sg30
I01
sg31
I01
sg32
g4052
sbsg44
g2413
sg46
I156
sg47
g4064
sbsVak6PFL1Fastjet
p4142
g0
(g1415
g2
Ntp4143
Rp4144
(dp4145
g17
g2396
sg18
(lp4146
g2398
ag2399
ag2400
asg24
I00
sg25
Nsg2398
g0
(g26
g2
Ntp4147
Rp4148
(dp4149
g24
I00
sg30
I01
sg31
I00
sg32
g2404
sbsg31
I00
sg2399
g0
(g26
g2
Ntp4150
Rp4151
(dp4152
g24
I00
sg30
I01
sg31
I01
sg32
VAK6PF
p4153
sbsg2400
g0
(g85
g2
Ntp4154
Rp4155
(dp4156
g24
I00
sg30
I01
sg31
I00
sg89
g2412
sg91
g43
sg92
g43
sbsg44
g2413
sg46
I70
sg47
g4142
sbsVak6PFL1FastjetL2L3Residual
p4157
g0
(g1415
g2
Ntp4158
Rp4159
(dp4160
g17
g2418
sg18
(lp4161
g2420
asg24
I00
sg25
Nsg2420
g0
(g58
g59
(lp4162
g4142
aVak6PFL2Relative
p4163
aVak6PFL3Absolute
p4164
aVak6PFResidual
p4165
atp4166
Rp4167
(dp4168
g24
I00
sg30
I01
sg31
I00
sg65
I1
sbsg31
I00
sg44
g66
sg46
I55
sg47
g4157
sbsVak6PFL1L2L3Residual
p4169
g0
(g1415
g2
Ntp4170
Rp4171
(dp4172
g17
g2418
sg18
(lp4173
g2420
asg24
I00
sg25
Nsg2420
g0
(g58
g59
(lp4174
Vak6PFL1Offset
p4175
ag4163
ag4164
ag4165
atp4176
Rp4177
(dp4178
g24
I00
sg30
I01
sg31
I00
sg65
I1
sbsg31
I00
sg44
g66
sg46
I55
sg47
g4169
sbsg4175
g0
(g1415
g2
Ntp4179
Rp4180
(dp4181
g17
g2441
sg18
(lp4182
g2398
ag2399
ag2443
ag2444
asg24
I00
sg25
Nsg2398
g0
(g26
g2
Ntp4183
Rp4184
(dp4185
g24
I00
sg30
I01
sg31
I00
sg32
g2448
sbsg31
I00
sg2399
g0
(g26
g2
Ntp4186
Rp4187
(dp4188
g24
I00
sg30
I01
sg31
I01
sg32
g4153
sbsg2443
g0
(g26
g2
Ntp4189
Rp4190
(dp4191
g24
I00
sg30
I01
sg31
I00
sg32
g2455
sbsg2444
g0
(g33
g2
Ntp4192
Rp4193
(dp4194
g24
I00
sg30
I01
sg31
I00
sg32
I4
sbsg44
g2413
sg46
I26
sg47
g4175
sbsVak6PFL2L3
p4195
g0
(g1415
g2
Ntp4196
Rp4197
(dp4198
g17
g2418
sg18
(lp4199
g2420
asg24
I00
sg25
Nsg2420
g0
(g58
g59
(lp4200
g4163
ag4164
atp4201
Rp4202
(dp4203
g24
I00
sg30
I01
sg31
I00
sg65
I1
sbsg31
I00
sg44
g66
sg46
I55
sg47
g4195
sbsVak6PFL2L3Residual
p4204
g0
(g1415
g2
Ntp4205
Rp4206
(dp4207
g17
g2418
sg18
(lp4208
g2420
asg24
I00
sg25
Nsg2420
g0
(g58
g59
(lp4209
g4163
ag4164
ag4165
atp4210
Rp4211
(dp4212
g24
I00
sg30
I01
sg31
I00
sg65
I1
sbsg31
I00
sg44
g66
sg46
I55
sg47
g4204
sbsg4163
g0
(g1415
g2
Ntp4213
Rp4214
(dp4215
g17
g2480
sg18
(lp4216
g2398
ag2399
asg24
I00
sg25
Nsg2398
g0
(g26
g2
Ntp4217
Rp4218
(dp4219
g24
I00
sg30
I01
sg31
I00
sg32
g2485
sbsg31
I00
sg2399
g0
(g26
g2
Ntp4220
Rp4221
(dp4222
g24
I00
sg30
I01
sg31
I01
sg32
g4153
sbsg44
g2413
sg46
I99
sg47
g4163
sbsg4164
g0
(g1415
g2
Ntp4223
Rp4224
(dp4225
g17
g2480
sg18
(lp4226
g2398
ag2399
asg24
I00
sg25
Nsg2398
g0
(g26
g2
Ntp4227
Rp4228
(dp4229
g24
I00
sg30
I01
sg31
I00
sg32
g2496
sbsg31
I00
sg2399
g0
(g26
g2
Ntp4230
Rp4231
(dp4232
g24
I00
sg30
I01
sg31
I01
sg32
g4153
sbsg44
g2413
sg46
I127
sg47
g4164
sbsg4165
g0
(g1415
g2
Ntp4233
Rp4234
(dp4235
g17
g2480
sg18
(lp4236
g2398
ag2399
asg24
I00
sg25
Nsg2398
g0
(g26
g2
Ntp4237
Rp4238
(dp4239
g24
I00
sg30
I01
sg31
I00
sg32
g2507
sbsg31
I00
sg2399
g0
(g26
g2
Ntp4240
Rp4241
(dp4242
g24
I00
sg30
I01
sg31
I01
sg32
g4153
sbsg44
g2413
sg46
I155
sg47
g4165
sbsVak7CaloL1FastL2L3
p4243
g0
(g1415
g2
Ntp4244
Rp4245
(dp4246
g17
g2418
sg18
(lp4247
g2420
asg24
I00
sg25
Nsg2420
g0
(g58
g59
(lp4248
g3224
aVak7CaloL2Relative
p4249
aVak7CaloL3Absolute
p4250
atp4251
Rp4252
(dp4253
g24
I00
sg30
I01
sg31
I00
sg65
I1
sbsg31
I00
sg44
g2413
sg46
I599
sg47
g4243
sbsVak7CaloL1FastL2L3L6
p4254
g0
(g1415
g2
Ntp4255
Rp4256
(dp4257
g17
g2418
sg18
(lp4258
g2420
asg24
I00
sg25
Nsg2420
g0
(g58
g59
(lp4259
Vak7CaloL1Offset
p4260
ag4249
ag4250
aVak7CaloL6SLB
p4261
atp4262
Rp4263
(dp4264
g24
I00
sg30
I01
sg31
I00
sg65
I1
sbsg31
I00
sg44
g2413
sg46
I760
sg47
g4254
sbsVak7CaloL1FastL2L3Residual
p4265
g0
(g1415
g2
Ntp4266
Rp4267
(dp4268
g17
g2418
sg18
(lp4269
g2420
asg24
I00
sg25
Nsg2420
g0
(g58
g59
(lp4270
Vak7CaloL1Fastjet
p4271
ag4249
ag4250
aVak7CaloResidual
p4272
atp4273
Rp4274
(dp4275
g24
I00
sg30
I01
sg31
I00
sg65
I1
sbsg31
I00
sg44
g66
sg46
I55
sg47
g4265
sbsg4271
g0
(g1415
g2
Ntp4276
Rp4277
(dp4278
g17
g2396
sg18
(lp4279
g2398
ag2399
ag2400
asg24
I00
sg25
Nsg2398
g0
(g26
g2
Ntp4280
Rp4281
(dp4282
g24
I00
sg30
I01
sg31
I00
sg32
g2404
sbsg31
I00
sg2399
g0
(g26
g2
Ntp4283
Rp4284
(dp4285
g24
I00
sg30
I01
sg31
I01
sg32
VAK7Calo
p4286
sbsg2400
g0
(g85
g2
Ntp4287
Rp4288
(dp4289
g24
I00
sg30
I01
sg31
I00
sg89
g3265
sg91
g43
sg92
g43
sbsg44
g2413
sg46
I49
sg47
g4271
sbsVak7CaloL1L2L3
p4290
g0
(g1415
g2
Ntp4291
Rp4292
(dp4293
g17
g2418
sg18
(lp4294
g2420
asg24
I00
sg25
Nsg2420
g0
(g58
g59
(lp4295
g4260
ag4249
ag4250
atp4296
Rp4297
(dp4298
g24
I00
sg30
I01
sg31
I00
sg65
I1
sbsg31
I00
sg44
g66
sg46
I55
sg47
g4290
sbsVak7CaloL1L2L3Residual
p4299
g0
(g1415
g2
Ntp4300
Rp4301
(dp4302
g17
g2418
sg18
(lp4303
g2420
asg24
I00
sg25
Nsg2420
g0
(g58
g59
(lp4304
g4260
ag4249
ag4250
ag4272
atp4305
Rp4306
(dp4307
g24
I00
sg30
I01
sg31
I00
sg65
I1
sbsg31
I00
sg44
g66
sg46
I55
sg47
g4299
sbsg4260
g0
(g1415
g2
Ntp4308
Rp4309
(dp4310
g17
g2441
sg18
(lp4311
g2398
ag2399
ag2443
ag2444
asg24
I00
sg25
Nsg2398
g0
(g26
g2
Ntp4312
Rp4313
(dp4314
g24
I00
sg30
I01
sg31
I00
sg32
g2448
sbsg31
I00
sg2399
g0
(g26
g2
Ntp4315
Rp4316
(dp4317
g24
I00
sg30
I01
sg31
I01
sg32
g4286
sbsg2443
g0
(g26
g2
Ntp4318
Rp4319
(dp4320
g24
I00
sg30
I01
sg31
I00
sg32
g2455
sbsg2444
g0
(g33
g2
Ntp4321
Rp4322
(dp4323
g24
I00
sg30
I01
sg31
I00
sg32
I4
sbsg44
g2413
sg46
I11
sg47
g4260
sbsVak7CaloL2L3
p4324
g0
(g1415
g2
Ntp4325
Rp4326
(dp4327
g17
g2418
sg18
(lp4328
g2420
asg24
I00
sg25
Nsg2420
g0
(g58
g59
(lp4329
g4249
ag4250
atp4330
Rp4331
(dp4332
g24
I00
sg30
I01
sg31
I00
sg65
I1
sbsg31
I00
sg44
g66
sg46
I55
sg47
g4324
sbsVak7CaloL2L3L6
p4333
g0
(g1415
g2
Ntp4334
Rp4335
(dp4336
g17
g2418
sg18
(lp4337
g2420
asg24
I00
sg25
Nsg2420
g0
(g58
g59
(lp4338
g4249
ag4250
ag4261
atp4339
Rp4340
(dp4341
g24
I00
sg30
I01
sg31
I00
sg65
I1
sbsg31
I00
sg44
g2413
sg46
I740
sg47
g4333
sbsVak7CaloL2L3Residual
p4342
g0
(g1415
g2
Ntp4343
Rp4344
(dp4345
g17
g2418
sg18
(lp4346
g2420
asg24
I00
sg25
Nsg2420
g0
(g58
g59
(lp4347
g4249
ag4250
ag4272
atp4348
Rp4349
(dp4350
g24
I00
sg30
I01
sg31
I00
sg65
I1
sbsg31
I00
sg44
g66
sg46
I55
sg47
g4342
sbsg4249
g0
(g1415
g2
Ntp4351
Rp4352
(dp4353
g17
g2480
sg18
(lp4354
g2398
ag2399
asg24
I00
sg25
Nsg2398
g0
(g26
g2
Ntp4355
Rp4356
(dp4357
g24
I00
sg30
I01
sg31
I00
sg32
g2485
sbsg31
I00
sg2399
g0
(g26
g2
Ntp4358
Rp4359
(dp4360
g24
I00
sg30
I01
sg31
I01
sg32
g4286
sbsg44
g2413
sg46
I85
sg47
g4249
sbsg4250
g0
(g1415
g2
Ntp4361
Rp4362
(dp4363
g17
g2480
sg18
(lp4364
g2398
ag2399
asg24
I00
sg25
Nsg2398
g0
(g26
g2
Ntp4365
Rp4366
(dp4367
g24
I00
sg30
I01
sg31
I00
sg32
g2496
sbsg31
I00
sg2399
g0
(g26
g2
Ntp4368
Rp4369
(dp4370
g24
I00
sg30
I01
sg31
I01
sg32
g4286
sbsg44
g2413
sg46
I114
sg47
g4250
sbsg4261
g0
(g1415
g2
Ntp4371
Rp4372
(dp4373
g17
g3351
sg18
(lp4374
g2398
ag2399
ag3353
ag3354
ag3355
asg24
I00
sg25
Nsg2398
g0
(g26
g2
Ntp4375
Rp4376
(dp4377
g24
I00
sg30
I01
sg31
I00
sg32
g3359
sbsg31
I00
sg2399
g0
(g26
g2
Ntp4378
Rp4379
(dp4380
g24
I00
sg30
I01
sg31
I00
sg32
g43
sbsg3353
g0
(g255
g2
Ntp4381
Rp4382
(dp4383
g24
I00
sg30
I01
sg31
I00
sg32
I01
sbsg3354
g0
(g85
g2
Ntp4384
Rp4385
(dp4386
g24
I00
sg30
I01
sg31
I00
sg89
Vak7CaloJetsSoftElectronTagInfos
p4387
sg91
g43
sg92
g43
sbsg3355
g0
(g85
g2
Ntp4388
Rp4389
(dp4390
g24
I00
sg30
I01
sg31
I00
sg89
Vak7CaloJetsSoftMuonTagInfos
p4391
sg91
g43
sg92
g43
sbsg44
g2413
sg46
I171
sg47
g4261
sbsg4272
g0
(g1415
g2
Ntp4392
Rp4393
(dp4394
g17
g2480
sg18
(lp4395
g2398
ag2399
asg24
I00
sg25
Nsg2398
g0
(g26
g2
Ntp4396
Rp4397
(dp4398
g24
I00
sg30
I01
sg31
I00
sg32
g2507
sbsg31
I00
sg2399
g0
(g26
g2
Ntp4399
Rp4400
(dp4401
g24
I00
sg30
I01
sg31
I01
sg32
g4286
sbsg44
g2413
sg46
I142
sg47
g4272
sbsVak7JPTL1FastL2L3
p4402
g0
(g1415
g2
Ntp4403
Rp4404
(dp4405
g17
g2418
sg18
(lp4406
g2420
asg24
I00
sg25
Nsg2420
g0
(g58
g59
(lp4407
Vak7L1JPTFastjet
p4408
aVak7JPTL2Relative
p4409
aVak7JPTL3Absolute
p4410
atp4411
Rp4412
(dp4413
g24
I00
sg30
I01
sg31
I00
sg65
I1
sbsg31
I00
sg44
g66
sg46
I55
sg47
g4402
sbsVak7JPTL1FastL2L3Residual
p4414
g0
(g1415
g2
Ntp4415
Rp4416
(dp4417
g17
g2418
sg18
(lp4418
g2420
asg24
I00
sg25
Nsg2420
g0
(g58
g59
(lp4419
g4408
ag4409
ag4410
aVak7JPTResidual
p4420
atp4421
Rp4422
(dp4423
g24
I00
sg30
I01
sg31
I00
sg65
I1
sbsg31
I00
sg44
g66
sg46
I55
sg47
g4414
sbsVak7JPTL1L2L3
p4424
g0
(g1415
g2
Ntp4425
Rp4426
(dp4427
g17
g2418
sg18
(lp4428
g2420
asg24
I00
sg25
Nsg2420
g0
(g58
g59
(lp4429
Vak7L1JPTOffset
p4430
ag4409
ag4410
atp4431
Rp4432
(dp4433
g24
I00
sg30
I01
sg31
I00
sg65
I1
sbsg31
I00
sg44
g66
sg46
I55
sg47
g4424
sbsVak7JPTL1L2L3Residual
p4434
g0
(g1415
g2
Ntp4435
Rp4436
(dp4437
g17
g2418
sg18
(lp4438
g2420
asg24
I00
sg25
Nsg2420
g0
(g58
g59
(lp4439
g4430
ag4409
ag4410
ag4420
atp4440
Rp4441
(dp4442
g24
I00
sg30
I01
sg31
I00
sg65
I1
sbsg31
I00
sg44
g66
sg46
I55
sg47
g4434
sbsVak7JPTL2L3
p4443
g0
(g1415
g2
Ntp4444
Rp4445
(dp4446
g17
g2418
sg18
(lp4447
g2420
asg24
I00
sg25
Nsg2420
g0
(g58
g59
(lp4448
g4430
ag4409
ag4410
atp4449
Rp4450
(dp4451
g24
I00
sg30
I01
sg31
I00
sg65
I1
sbsg31
I00
sg44
g66
sg46
I55
sg47
g4443
sbsg4408
g0
(g1415
g2
Ntp4452
Rp4453
(dp4454
g17
g3494
sg18
(lp4455
g2398
ag2399
ag3496
asg24
I00
sg25
Nsg2398
g0
(g26
g2
Ntp4456
Rp4457
(dp4458
g24
I00
sg30
I01
sg31
I00
sg32
g3500
sbsg31
I00
sg2399
g0
(g26
g2
Ntp4459
Rp4460
(dp4461
g24
I00
sg30
I01
sg31
I00
sg32
VAK7JPT
p4462
sbsg3496
g0
(g26
g2
Ntp4463
Rp4464
(dp4465
g24
I00
sg30
I01
sg31
I00
sg32
g4271
sbsg44
g66
sg46
I55
sg47
g4408
sbsg4430
g0
(g1415
g2
Ntp4466
Rp4467
(dp4468
g17
g3494
sg18
(lp4469
g2398
ag2399
ag3496
asg24
I00
sg25
Nsg2398
g0
(g26
g2
Ntp4470
Rp4471
(dp4472
g24
I00
sg30
I01
sg31
I00
sg32
g3500
sbsg31
I00
sg2399
g0
(g26
g2
Ntp4473
Rp4474
(dp4475
g24
I00
sg30
I01
sg31
I00
sg32
g4462
sbsg3496
g0
(g26
g2
Ntp4476
Rp4477
(dp4478
g24
I00
sg30
I01
sg31
I00
sg32
g4260
sbsg44
g66
sg46
I55
sg47
g4430
sbsVak7PFCHSL1FastL2L3
p4479
g0
(g1415
g2
Ntp4480
Rp4481
(dp4482
g17
g2418
sg18
(lp4483
g2420
asg24
I00
sg25
Nsg2420
g0
(g58
g59
(lp4484
g3526
aVak7PFCHSL2Relative
p4485
aVak7PFCHSL3Absolute
p4486
atp4487
Rp4488
(dp4489
g24
I00
sg30
I01
sg31
I00
sg65
I1
sbsg31
I00
sg44
g2413
sg46
I610
sg47
g4479
sbsVak7PFCHSL1Fastjet
p4490
g0
(g1415
g2
Ntp4491
Rp4492
(dp4493
g17
g2396
sg18
(lp4494
g2398
ag2399
ag2400
asg24
I00
sg25
Nsg2398
g0
(g26
g2
Ntp4495
Rp4496
(dp4497
g24
I00
sg30
I01
sg31
I00
sg32
g2404
sbsg31
I00
sg2399
g0
(g26
g2
Ntp4498
Rp4499
(dp4500
g24
I00
sg30
I01
sg31
I01
sg32
VAK7PFchs
p4501
sbsg2400
g0
(g85
g2
Ntp4502
Rp4503
(dp4504
g24
I00
sg30
I01
sg31
I00
sg89
g2412
sg91
g43
sg92
g43
sbsg44
g2413
sg46
I73
sg47
g4490
sbsVak7PFCHSL1FastjetL2L3Residual
p4505
g0
(g1415
g2
Ntp4506
Rp4507
(dp4508
g17
g2418
sg18
(lp4509
g2420
asg24
I00
sg25
Nsg2420
g0
(g58
g59
(lp4510
g4490
ag4485
ag4486
aVak7PFCHSResidual
p4511
atp4512
Rp4513
(dp4514
g24
I00
sg30
I01
sg31
I00
sg65
I1
sbsg31
I00
sg44
g66
sg46
I55
sg47
g4505
sbsVak7PFCHSL1L2L3Residual
p4515
g0
(g1415
g2
Ntp4516
Rp4517
(dp4518
g17
g2418
sg18
(lp4519
g2420
asg24
I00
sg25
Nsg2420
g0
(g58
g59
(lp4520
Vak7PFCHSL1Offset
p4521
ag4485
ag4486
ag4511
atp4522
Rp4523
(dp4524
g24
I00
sg30
I01
sg31
I00
sg65
I1
sbsg31
I00
sg44
g66
sg46
I55
sg47
g4515
sbsg4521
g0
(g1415
g2
Ntp4525
Rp4526
(dp4527
g17
g2441
sg18
(lp4528
g2398
ag2399
ag2443
ag2444
asg24
I00
sg25
Nsg2398
g0
(g26
g2
Ntp4529
Rp4530
(dp4531
g24
I00
sg30
I01
sg31
I00
sg32
g2448
sbsg31
I00
sg2399
g0
(g26
g2
Ntp4532
Rp4533
(dp4534
g24
I00
sg30
I01
sg31
I01
sg32
g4501
sbsg2443
g0
(g26
g2
Ntp4535
Rp4536
(dp4537
g24
I00
sg30
I01
sg31
I00
sg32
g2455
sbsg2444
g0
(g33
g2
Ntp4538
Rp4539
(dp4540
g24
I00
sg30
I01
sg31
I00
sg32
I4
sbsg44
g2413
sg46
I29
sg47
g4521
sbsVak7PFCHSL2L3
p4541
g0
(g1415
g2
Ntp4542
Rp4543
(dp4544
g17
g2418
sg18
(lp4545
g2420
asg24
I00
sg25
Nsg2420
g0
(g58
g59
(lp4546
g4485
ag4486
atp4547
Rp4548
(dp4549
g24
I00
sg30
I01
sg31
I00
sg65
I1
sbsg31
I00
sg44
g66
sg46
I55
sg47
g4541
sbsVak7PFCHSL2L3Residual
p4550
g0
(g1415
g2
Ntp4551
Rp4552
(dp4553
g17
g2418
sg18
(lp4554
g2420
asg24
I00
sg25
Nsg2420
g0
(g58
g59
(lp4555
g4485
ag4486
ag4511
atp4556
Rp4557
(dp4558
g24
I00
sg30
I01
sg31
I00
sg65
I1
sbsg31
I00
sg44
g66
sg46
I55
sg47
g4550
sbsg4485
g0
(g1415
g2
Ntp4559
Rp4560
(dp4561
g17
g2480
sg18
(lp4562
g2398
ag2399
asg24
I00
sg25
Nsg2398
g0
(g26
g2
Ntp4563
Rp4564
(dp4565
g24
I00
sg30
I01
sg31
I00
sg32
g2485
sbsg31
I00
sg2399
g0
(g26
g2
Ntp4566
Rp4567
(dp4568
g24
I00
sg30
I01
sg31
I01
sg32
g4501
sbsg44
g2413
sg46
I102
sg47
g4485
sbsg4486
g0
(g1415
g2
Ntp4569
Rp4570
(dp4571
g17
g2480
sg18
(lp4572
g2398
ag2399
asg24
I00
sg25
Nsg2398
g0
(g26
g2
Ntp4573
Rp4574
(dp4575
g24
I00
sg30
I01
sg31
I00
sg32
g2496
sbsg31
I00
sg2399
g0
(g26
g2
Ntp4576
Rp4577
(dp4578
g24
I00
sg30
I01
sg31
I01
sg32
g4501
sbsg44
g2413
sg46
I130
sg47
g4486
sbsg4511
g0
(g1415
g2
Ntp4579
Rp4580
(dp4581
g17
g2480
sg18
(lp4582
g2398
ag2399
asg24
I00
sg25
Nsg2398
g0
(g26
g2
Ntp4583
Rp4584
(dp4585
g24
I00
sg30
I01
sg31
I00
sg32
g2507
sbsg31
I00
sg2399
g0
(g26
g2
Ntp4586
Rp4587
(dp4588
g24
I00
sg30
I01
sg31
I01
sg32
g4501
sbsg44
g2413
sg46
I158
sg47
g4511
sbsVak7PFL1FastL2L3
p4589
g0
(g1415
g2
Ntp4590
Rp4591
(dp4592
g17
g2418
sg18
(lp4593
g2420
asg24
I00
sg25
Nsg2420
g0
(g58
g59
(lp4594
g3645
aVak7PFL2Relative
p4595
aVak7PFL3Absolute
p4596
atp4597
Rp4598
(dp4599
g24
I00
sg30
I01
sg31
I00
sg65
I1
sbsg31
I00
sg44
g2413
sg46
I608
sg47
g4589
sbsVak7PFL1FastL2L3L6
p4600
g0
(g1415
g2
Ntp4601
Rp4602
(dp4603
g17
g2418
sg18
(lp4604
g2420
asg24
I00
sg25
Nsg2420
g0
(g58
g59
(lp4605
g3645
ag4595
ag4596
aVak7PFL6SLB
p4606
atp4607
Rp4608
(dp4609
g24
I00
sg30
I01
sg31
I00
sg65
I1
sbsg31
I00
sg44
g2413
sg46
I769
sg47
g4600
sbsVak7PFL1Fastjet
p4610
g0
(g1415
g2
Ntp4611
Rp4612
(dp4613
g17
g2396
sg18
(lp4614
g2398
ag2399
ag2400
asg24
I00
sg25
Nsg2398
g0
(g26
g2
Ntp4615
Rp4616
(dp4617
g24
I00
sg30
I01
sg31
I00
sg32
g2404
sbsg31
I00
sg2399
g0
(g26
g2
Ntp4618
Rp4619
(dp4620
g24
I00
sg30
I01
sg31
I01
sg32
VAK7PF
p4621
sbsg2400
g0
(g85
g2
Ntp4622
Rp4623
(dp4624
g24
I00
sg30
I01
sg31
I00
sg89
g2412
sg91
g43
sg92
g43
sbsg44
g2413
sg46
I72
sg47
g4610
sbsVak7PFL1FastjetL2L3Residual
p4625
g0
(g1415
g2
Ntp4626
Rp4627
(dp4628
g17
g2418
sg18
(lp4629
g2420
asg24
I00
sg25
Nsg2420
g0
(g58
g59
(lp4630
g4610
ag4595
ag4596
aVak7PFResidual
p4631
atp4632
Rp4633
(dp4634
g24
I00
sg30
I01
sg31
I00
sg65
I1
sbsg31
I00
sg44
g66
sg46
I55
sg47
g4625
sbsVak7PFL1L2L3
p4635
g0
(g1415
g2
Ntp4636
Rp4637
(dp4638
g17
g2418
sg18
(lp4639
g2420
asg24
I00
sg25
Nsg2420
g0
(g58
g59
(lp4640
Vak7PFL1Offset
p4641
ag4595
ag4596
atp4642
Rp4643
(dp4644
g24
I00
sg30
I01
sg31
I00
sg65
I1
sbsg31
I00
sg44
g66
sg46
I55
sg47
g4635
sbsVak7PFL1L2L3Residual
p4645
g0
(g1415
g2
Ntp4646
Rp4647
(dp4648
g17
g2418
sg18
(lp4649
g2420
asg24
I00
sg25
Nsg2420
g0
(g58
g59
(lp4650
g4641
ag4595
ag4596
ag4631
atp4651
Rp4652
(dp4653
g24
I00
sg30
I01
sg31
I00
sg65
I1
sbsg31
I00
sg44
g66
sg46
I55
sg47
g4645
sbsg4641
g0
(g1415
g2
Ntp4654
Rp4655
(dp4656
g17
g2441
sg18
(lp4657
g2398
ag2399
ag2443
ag2444
asg24
I00
sg25
Nsg2398
g0
(g26
g2
Ntp4658
Rp4659
(dp4660
g24
I00
sg30
I01
sg31
I00
sg32
g2448
sbsg31
I00
sg2399
g0
(g26
g2
Ntp4661
Rp4662
(dp4663
g24
I00
sg30
I01
sg31
I01
sg32
g4621
sbsg2443
g0
(g26
g2
Ntp4664
Rp4665
(dp4666
g24
I00
sg30
I01
sg31
I00
sg32
g2455
sbsg2444
g0
(g33
g2
Ntp4667
Rp4668
(dp4669
g24
I00
sg30
I01
sg31
I00
sg32
I4
sbsg44
g2413
sg46
I28
sg47
g4641
sbsVak7PFL2L3
p4670
g0
(g1415
g2
Ntp4671
Rp4672
(dp4673
g17
g2418
sg18
(lp4674
g2420
asg24
I00
sg25
Nsg2420
g0
(g58
g59
(lp4675
g4595
ag4596
atp4676
Rp4677
(dp4678
g24
I00
sg30
I01
sg31
I00
sg65
I1
sbsg31
I00
sg44
g66
sg46
I55
sg47
g4670
sbsVak7PFL2L3L6
p4679
g0
(g1415
g2
Ntp4680
Rp4681
(dp4682
g17
g2418
sg18
(lp4683
g2420
asg24
I00
sg25
Nsg2420
g0
(g58
g59
(lp4684
g4595
ag4596
ag4606
atp4685
Rp4686
(dp4687
g24
I00
sg30
I01
sg31
I00
sg65
I1
sbsg31
I00
sg44
g2413
sg46
I749
sg47
g4679
sbsVak7PFL2L3Residual
p4688
g0
(g1415
g2
Ntp4689
Rp4690
(dp4691
g17
g2418
sg18
(lp4692
g2420
asg24
I00
sg25
Nsg2420
g0
(g58
g59
(lp4693
g4595
ag4596
ag4631
atp4694
Rp4695
(dp4696
g24
I00
sg30
I01
sg31
I00
sg65
I1
sbsg31
I00
sg44
g66
sg46
I55
sg47
g4688
sbsg4595
g0
(g1415
g2
Ntp4697
Rp4698
(dp4699
g17
g2480
sg18
(lp4700
g2398
ag2399
asg24
I00
sg25
Nsg2398
g0
(g26
g2
Ntp4701
Rp4702
(dp4703
g24
I00
sg30
I01
sg31
I00
sg32
g2485
sbsg31
I00
sg2399
g0
(g26
g2
Ntp4704
Rp4705
(dp4706
g24
I00
sg30
I01
sg31
I01
sg32
g4621
sbsg44
g2413
sg46
I101
sg47
g4595
sbsg4596
g0
(g1415
g2
Ntp4707
Rp4708
(dp4709
g17
g2480
sg18
(lp4710
g2398
ag2399
asg24
I00
sg25
Nsg2398
g0
(g26
g2
Ntp4711
Rp4712
(dp4713
g24
I00
sg30
I01
sg31
I00
sg32
g2496
sbsg31
I00
sg2399
g0
(g26
g2
Ntp4714
Rp4715
(dp4716
g24
I00
sg30
I01
sg31
I01
sg32
g4621
sbsg44
g2413
sg46
I129
sg47
g4596
sbsg4606
g0
(g1415
g2
Ntp4717
Rp4718
(dp4719
g17
g3351
sg18
(lp4720
g2398
ag2399
ag3353
ag3354
ag3355
asg24
I00
sg25
Nsg2398
g0
(g26
g2
Ntp4721
Rp4722
(dp4723
g24
I00
sg30
I01
sg31
I00
sg32
g3359
sbsg31
I00
sg2399
g0
(g26
g2
Ntp4724
Rp4725
(dp4726
g24
I00
sg30
I01
sg31
I00
sg32
g43
sbsg3353
g0
(g255
g2
Ntp4727
Rp4728
(dp4729
g24
I00
sg30
I01
sg31
I00
sg32
I00
sbsg3354
g0
(g85
g2
Ntp4730
Rp4731
(dp4732
g24
I00
sg30
I01
sg31
I00
sg89
Vak7PFJetsSoftElectronTagInfos
p4733
sg91
g43
sg92
g43
sbsg3355
g0
(g85
g2
Ntp4734
Rp4735
(dp4736
g24
I00
sg30
I01
sg31
I00
sg89
Vak7PFJetsSoftMuonTagInfos
p4737
sg91
g43
sg92
g43
sbsg44
g2413
sg46
I188
sg47
g4606
sbsg4631
g0
(g1415
g2
Ntp4738
Rp4739
(dp4740
g17
g2480
sg18
(lp4741
g2398
ag2399
asg24
I00
sg25
Nsg2398
g0
(g26
g2
Ntp4742
Rp4743
(dp4744
g24
I00
sg30
I01
sg31
I00
sg32
g2507
sbsg31
I00
sg2399
g0
(g26
g2
Ntp4745
Rp4746
(dp4747
g24
I00
sg30
I01
sg31
I01
sg32
g4621
sbsg44
g2413
sg46
I157
sg47
g4631
sbsVak8PFCHSL1Fastjet
p4748
g0
(g1415
g2
Ntp4749
Rp4750
(dp4751
g17
g2396
sg18
(lp4752
g2398
ag2399
ag2400
asg24
I00
sg25
Nsg2398
g0
(g26
g2
Ntp4753
Rp4754
(dp4755
g24
I00
sg30
I01
sg31
I00
sg32
g2404
sbsg31
I00
sg2399
g0
(g26
g2
Ntp4756
Rp4757
(dp4758
g24
I00
sg30
I01
sg31
I01
sg32
VAK8PFchs
p4759
sbsg2400
g0
(g85
g2
Ntp4760
Rp4761
(dp4762
g24
I00
sg30
I01
sg31
I00
sg89
g2412
sg91
g43
sg92
g43
sbsg44
g2413
sg46
I75
sg47
g4748
sbsVak8PFCHSL1FastjetL2L3Residual
p4763
g0
(g1415
g2
Ntp4764
Rp4765
(dp4766
g17
g2418
sg18
(lp4767
g2420
asg24
I00
sg25
Nsg2420
g0
(g58
g59
(lp4768
g4748
aVak8PFCHSL2Relative
p4769
aVak8PFCHSL3Absolute
p4770
aVak8PFCHSResidual
p4771
atp4772
Rp4773
(dp4774
g24
I00
sg30
I01
sg31
I00
sg65
I1
sbsg31
I00
sg44
g66
sg46
I55
sg47
g4763
sbsVak8PFCHSL1L2L3Residual
p4775
g0
(g1415
g2
Ntp4776
Rp4777
(dp4778
g17
g2418
sg18
(lp4779
g2420
asg24
I00
sg25
Nsg2420
g0
(g58
g59
(lp4780
Vak8PFCHSL1Offset
p4781
ag4769
ag4770
ag4771
atp4782
Rp4783
(dp4784
g24
I00
sg30
I01
sg31
I00
sg65
I1
sbsg31
I00
sg44
g66
sg46
I55
sg47
g4775
sbsg4781
g0
(g1415
g2
Ntp4785
Rp4786
(dp4787
g17
g2441
sg18
(lp4788
g2398
ag2399
ag2443
ag2444
asg24
I00
sg25
Nsg2398
g0
(g26
g2
Ntp4789
Rp4790
(dp4791
g24
I00
sg30
I01
sg31
I00
sg32
g2448
sbsg31
I00
sg2399
g0
(g26
g2
Ntp4792
Rp4793
(dp4794
g24
I00
sg30
I01
sg31
I01
sg32
g4759
sbsg2443
g0
(g26
g2
Ntp4795
Rp4796
(dp4797
g24
I00
sg30
I01
sg31
I00
sg32
g2455
sbsg2444
g0
(g33
g2
Ntp4798
Rp4799
(dp4800
g24
I00
sg30
I01
sg31
I00
sg32
I4
sbsg44
g2413
sg46
I31
sg47
g4781
sbsVak8PFCHSL2L3
p4801
g0
(g1415
g2
Ntp4802
Rp4803
(dp4804
g17
g2418
sg18
(lp4805
g2420
asg24
I00
sg25
Nsg2420
g0
(g58
g59
(lp4806
g4769
ag4770
atp4807
Rp4808
(dp4809
g24
I00
sg30
I01
sg31
I00
sg65
I1
sbsg31
I00
sg44
g66
sg46
I55
sg47
g4801
sbsVak8PFCHSL2L3Residual
p4810
g0
(g1415
g2
Ntp4811
Rp4812
(dp4813
g17
g2418
sg18
(lp4814
g2420
asg24
I00
sg25
Nsg2420
g0
(g58
g59
(lp4815
g4769
ag4770
ag4771
atp4816
Rp4817
(dp4818
g24
I00
sg30
I01
sg31
I00
sg65
I1
sbsg31
I00
sg44
g66
sg46
I55
sg47
g4810
sbsg4769
g0
(g1415
g2
Ntp4819
Rp4820
(dp4821
g17
g2480
sg18
(lp4822
g2398
ag2399
asg24
I00
sg25
Nsg2398
g0
(g26
g2
Ntp4823
Rp4824
(dp4825
g24
I00
sg30
I01
sg31
I00
sg32
g2485
sbsg31
I00
sg2399
g0
(g26
g2
Ntp4826
Rp4827
(dp4828
g24
I00
sg30
I01
sg31
I01
sg32
g4759
sbsg44
g2413
sg46
I104
sg47
g4769
sbsg4770
g0
(g1415
g2
Ntp4829
Rp4830
(dp4831
g17
g2480
sg18
(lp4832
g2398
ag2399
asg24
I00
sg25
Nsg2398
g0
(g26
g2
Ntp4833
Rp4834
(dp4835
g24
I00
sg30
I01
sg31
I00
sg32
g2496
sbsg31
I00
sg2399
g0
(g26
g2
Ntp4836
Rp4837
(dp4838
g24
I00
sg30
I01
sg31
I01
sg32
g4759
sbsg44
g2413
sg46
I132
sg47
g4770
sbsg4771
g0
(g1415
g2
Ntp4839
Rp4840
(dp4841
g17
g2480
sg18
(lp4842
g2398
ag2399
asg24
I00
sg25
Nsg2398
g0
(g26
g2
Ntp4843
Rp4844
(dp4845
g24
I00
sg30
I01
sg31
I00
sg32
g2507
sbsg31
I00
sg2399
g0
(g26
g2
Ntp4846
Rp4847
(dp4848
g24
I00
sg30
I01
sg31
I01
sg32
g4759
sbsg44
g2413
sg46
I160
sg47
g4771
sbsVak8PFL1Fastjet
p4849
g0
(g1415
g2
Ntp4850
Rp4851
(dp4852
g17
g2396
sg18
(lp4853
g2398
ag2399
ag2400
asg24
I00
sg25
Nsg2398
g0
(g26
g2
Ntp4854
Rp4855
(dp4856
g24
I00
sg30
I01
sg31
I00
sg32
g2404
sbsg31
I00
sg2399
g0
(g26
g2
Ntp4857
Rp4858
(dp4859
g24
I00
sg30
I01
sg31
I01
sg32
VAK8PF
p4860
sbsg2400
g0
(g85
g2
Ntp4861
Rp4862
(dp4863
g24
I00
sg30
I01
sg31
I00
sg89
g2412
sg91
g43
sg92
g43
sbsg44
g2413
sg46
I74
sg47
g4849
sbsVak8PFL1FastjetL2L3Residual
p4864
g0
(g1415
g2
Ntp4865
Rp4866
(dp4867
g17
g2418
sg18
(lp4868
g2420
asg24
I00
sg25
Nsg2420
g0
(g58
g59
(lp4869
g4849
aVak8PFL2Relative
p4870
aVak8PFL3Absolute
p4871
aVak8PFResidual
p4872
atp4873
Rp4874
(dp4875
g24
I00
sg30
I01
sg31
I00
sg65
I1
sbsg31
I00
sg44
g66
sg46
I55
sg47
g4864
sbsVak8PFL1L2L3Residual
p4876
g0
(g1415
g2
Ntp4877
Rp4878
(dp4879
g17
g2418
sg18
(lp4880
g2420
asg24
I00
sg25
Nsg2420
g0
(g58
g59
(lp4881
Vak8PFL1Offset
p4882
ag4870
ag4871
ag4872
atp4883
Rp4884
(dp4885
g24
I00
sg30
I01
sg31
I00
sg65
I1
sbsg31
I00
sg44
g66
sg46
I55
sg47
g4876
sbsg4882
g0
(g1415
g2
Ntp4886
Rp4887
(dp4888
g17
g2441
sg18
(lp4889
g2398
ag2399
ag2443
ag2444
asg24
I00
sg25
Nsg2398
g0
(g26
g2
Ntp4890
Rp4891
(dp4892
g24
I00
sg30
I01
sg31
I00
sg32
g2448
sbsg31
I00
sg2399
g0
(g26
g2
Ntp4893
Rp4894
(dp4895
g24
I00
sg30
I01
sg31
I01
sg32
g4860
sbsg2443
g0
(g26
g2
Ntp4896
Rp4897
(dp4898
g24
I00
sg30
I01
sg31
I00
sg32
g2455
sbsg2444
g0
(g33
g2
Ntp4899
Rp4900
(dp4901
g24
I00
sg30
I01
sg31
I00
sg32
I4
sbsg44
g2413
sg46
I30
sg47
g4882
sbsVak8PFL2L3
p4902
g0
(g1415
g2
Ntp4903
Rp4904
(dp4905
g17
g2418
sg18
(lp4906
g2420
asg24
I00
sg25
Nsg2420
g0
(g58
g59
(lp4907
g4870
ag4871
atp4908
Rp4909
(dp4910
g24
I00
sg30
I01
sg31
I00
sg65
I1
sbsg31
I00
sg44
g66
sg46
I55
sg47
g4902
sbsVak8PFL2L3Residual
p4911
g0
(g1415
g2
Ntp4912
Rp4913
(dp4914
g17
g2418
sg18
(lp4915
g2420
asg24
I00
sg25
Nsg2420
g0
(g58
g59
(lp4916
g4870
ag4871
ag4872
atp4917
Rp4918
(dp4919
g24
I00
sg30
I01
sg31
I00
sg65
I1
sbsg31
I00
sg44
g66
sg46
I55
sg47
g4911
sbsg4870
g0
(g1415
g2
Ntp4920
Rp4921
(dp4922
g17
g2480
sg18
(lp4923
g2398
ag2399
asg24
I00
sg25
Nsg2398
g0
(g26
g2
Ntp4924
Rp4925
(dp4926
g24
I00
sg30
I01
sg31
I00
sg32
g2485
sbsg31
I00
sg2399
g0
(g26
g2
Ntp4927
Rp4928
(dp4929
g24
I00
sg30
I01
sg31
I01
sg32
g4860
sbsg44
g2413
sg46
I103
sg47
g4870
sbsg4871
g0
(g1415
g2
Ntp4930
Rp4931
(dp4932
g17
g2480
sg18
(lp4933
g2398
ag2399
asg24
I00
sg25
Nsg2398
g0
(g26
g2
Ntp4934
Rp4935
(dp4936
g24
I00
sg30
I01
sg31
I00
sg32
g2496
sbsg31
I00
sg2399
g0
(g26
g2
Ntp4937
Rp4938
(dp4939
g24
I00
sg30
I01
sg31
I01
sg32
g4860
sbsg44
g2413
sg46
I131
sg47
g4871
sbsg4872
g0
(g1415
g2
Ntp4940
Rp4941
(dp4942
g17
g2480
sg18
(lp4943
g2398
ag2399
asg24
I00
sg25
Nsg2398
g0
(g26
g2
Ntp4944
Rp4945
(dp4946
g24
I00
sg30
I01
sg31
I00
sg32
g2507
sbsg31
I00
sg2399
g0
(g26
g2
Ntp4947
Rp4948
(dp4949
g24
I00
sg30
I01
sg31
I01
sg32
g4860
sbsg44
g2413
sg46
I159
sg47
g4872
sbsVak9PFCHSL1Fastjet
p4950
g0
(g1415
g2
Ntp4951
Rp4952
(dp4953
g17
g2396
sg18
(lp4954
g2398
ag2399
ag2400
asg24
I00
sg25
Nsg2398
g0
(g26
g2
Ntp4955
Rp4956
(dp4957
g24
I00
sg30
I01
sg31
I00
sg32
g2404
sbsg31
I00
sg2399
g0
(g26
g2
Ntp4958
Rp4959
(dp4960
g24
I00
sg30
I01
sg31
I01
sg32
VAK9PFchs
p4961
sbsg2400
g0
(g85
g2
Ntp4962
Rp4963
(dp4964
g24
I00
sg30
I01
sg31
I00
sg89
g2412
sg91
g43
sg92
g43
sbsg44
g2413
sg46
I77
sg47
g4950
sbsVak9PFCHSL1FastjetL2L3Residual
p4965
g0
(g1415
g2
Ntp4966
Rp4967
(dp4968
g17
g2418
sg18
(lp4969
g2420
asg24
I00
sg25
Nsg2420
g0
(g58
g59
(lp4970
g4950
aVak9PFCHSL2Relative
p4971
aVak9PFCHSL3Absolute
p4972
aVak9PFCHSResidual
p4973
atp4974
Rp4975
(dp4976
g24
I00
sg30
I01
sg31
I00
sg65
I1
sbsg31
I00
sg44
g66
sg46
I55
sg47
g4965
sbsVak9PFCHSL1L2L3Residual
p4977
g0
(g1415
g2
Ntp4978
Rp4979
(dp4980
g17
g2418
sg18
(lp4981
g2420
asg24
I00
sg25
Nsg2420
g0
(g58
g59
(lp4982
Vak9PFCHSL1Offset
p4983
ag4971
ag4972
ag4973
atp4984
Rp4985
(dp4986
g24
I00
sg30
I01
sg31
I00
sg65
I1
sbsg31
I00
sg44
g66
sg46
I55
sg47
g4977
sbsg4983
g0
(g1415
g2
Ntp4987
Rp4988
(dp4989
g17
g2441
sg18
(lp4990
g2398
ag2399
ag2443
ag2444
asg24
I00
sg25
Nsg2398
g0
(g26
g2
Ntp4991
Rp4992
(dp4993
g24
I00
sg30
I01
sg31
I00
sg32
g2448
sbsg31
I00
sg2399
g0
(g26
g2
Ntp4994
Rp4995
(dp4996
g24
I00
sg30
I01
sg31
I01
sg32
g4961
sbsg2443
g0
(g26
g2
Ntp4997
Rp4998
(dp4999
g24
I00
sg30
I01
sg31
I00
sg32
g2455
sbsg2444
g0
(g33
g2
Ntp5000
Rp5001
(dp5002
g24
I00
sg30
I01
sg31
I00
sg32
I4
sbsg44
g2413
sg46
I33
sg47
g4983
sbsVak9PFCHSL2L3
p5003
g0
(g1415
g2
Ntp5004
Rp5005
(dp5006
g17
g2418
sg18
(lp5007
g2420
asg24
I00
sg25
Nsg2420
g0
(g58
g59
(lp5008
g4971
ag4972
atp5009
Rp5010
(dp5011
g24
I00
sg30
I01
sg31
I00
sg65
I1
sbsg31
I00
sg44
g66
sg46
I55
sg47
g5003
sbsVak9PFCHSL2L3Residual
p5012
g0
(g1415
g2
Ntp5013
Rp5014
(dp5015
g17
g2418
sg18
(lp5016
g2420
asg24
I00
sg25
Nsg2420
g0
(g58
g59
(lp5017
g4971
ag4972
ag4973
atp5018
Rp5019
(dp5020
g24
I00
sg30
I01
sg31
I00
sg65
I1
sbsg31
I00
sg44
g66
sg46
I55
sg47
g5012
sbsg4971
g0
(g1415
g2
Ntp5021
Rp5022
(dp5023
g17
g2480
sg18
(lp5024
g2398
ag2399
asg24
I00
sg25
Nsg2398
g0
(g26
g2
Ntp5025
Rp5026
(dp5027
g24
I00
sg30
I01
sg31
I00
sg32
g2485
sbsg31
I00
sg2399
g0
(g26
g2
Ntp5028
Rp5029
(dp5030
g24
I00
sg30
I01
sg31
I01
sg32
g4961
sbsg44
g2413
sg46
I106
sg47
g4971
sbsg4972
g0
(g1415
g2
Ntp5031
Rp5032
(dp5033
g17
g2480
sg18
(lp5034
g2398
ag2399
asg24
I00
sg25
Nsg2398
g0
(g26
g2
Ntp5035
Rp5036
(dp5037
g24
I00
sg30
I01
sg31
I00
sg32
g2496
sbsg31
I00
sg2399
g0
(g26
g2
Ntp5038
Rp5039
(dp5040
g24
I00
sg30
I01
sg31
I01
sg32
g4961
sbsg44
g2413
sg46
I134
sg47
g4972
sbsg4973
g0
(g1415
g2
Ntp5041
Rp5042
(dp5043
g17
g2480
sg18
(lp5044
g2398
ag2399
asg24
I00
sg25
Nsg2398
g0
(g26
g2
Ntp5045
Rp5046
(dp5047
g24
I00
sg30
I01
sg31
I00
sg32
g2507
sbsg31
I00
sg2399
g0
(g26
g2
Ntp5048
Rp5049
(dp5050
g24
I00
sg30
I01
sg31
I01
sg32
g4961
sbsg44
g2413
sg46
I162
sg47
g4973
sbsVak9PFL1Fastjet
p5051
g0
(g1415
g2
Ntp5052
Rp5053
(dp5054
g17
g2396
sg18
(lp5055
g2398
ag2399
ag2400
asg24
I00
sg25
Nsg2398
g0
(g26
g2
Ntp5056
Rp5057
(dp5058
g24
I00
sg30
I01
sg31
I00
sg32
g2404
sbsg31
I00
sg2399
g0
(g26
g2
Ntp5059
Rp5060
(dp5061
g24
I00
sg30
I01
sg31
I01
sg32
VAK9PF
p5062
sbsg2400
g0
(g85
g2
Ntp5063
Rp5064
(dp5065
g24
I00
sg30
I01
sg31
I00
sg89
g2412
sg91
g43
sg92
g43
sbsg44
g2413
sg46
I76
sg47
g5051
sbsVak9PFL1FastjetL2L3Residual
p5066
g0
(g1415
g2
Ntp5067
Rp5068
(dp5069
g17
g2418
sg18
(lp5070
g2420
asg24
I00
sg25
Nsg2420
g0
(g58
g59
(lp5071
g5051
aVak9PFL2Relative
p5072
aVak9PFL3Absolute
p5073
aVak9PFResidual
p5074
atp5075
Rp5076
(dp5077
g24
I00
sg30
I01
sg31
I00
sg65
I1
sbsg31
I00
sg44
g66
sg46
I55
sg47
g5066
sbsVak9PFL1L2L3Residual
p5078
g0
(g1415
g2
Ntp5079
Rp5080
(dp5081
g17
g2418
sg18
(lp5082
g2420
asg24
I00
sg25
Nsg2420
g0
(g58
g59
(lp5083
Vak9PFL1Offset
p5084
ag5072
ag5073
ag5074
atp5085
Rp5086
(dp5087
g24
I00
sg30
I01
sg31
I00
sg65
I1
sbsg31
I00
sg44
g66
sg46
I55
sg47
g5078
sbsg5084
g0
(g1415
g2
Ntp5088
Rp5089
(dp5090
g17
g2441
sg18
(lp5091
g2398
ag2399
ag2443
ag2444
asg24
I00
sg25
Nsg2398
g0
(g26
g2
Ntp5092
Rp5093
(dp5094
g24
I00
sg30
I01
sg31
I00
sg32
g2448
sbsg31
I00
sg2399
g0
(g26
g2
Ntp5095
Rp5096
(dp5097
g24
I00
sg30
I01
sg31
I01
sg32
g5062
sbsg2443
g0
(g26
g2
Ntp5098
Rp5099
(dp5100
g24
I00
sg30
I01
sg31
I00
sg32
g2455
sbsg2444
g0
(g33
g2
Ntp5101
Rp5102
(dp5103
g24
I00
sg30
I01
sg31
I00
sg32
I4
sbsg44
g2413
sg46
I32
sg47
g5084
sbsVak9PFL2L3
p5104
g0
(g1415
g2
Ntp5105
Rp5106
(dp5107
g17
g2418
sg18
(lp5108
g2420
asg24
I00
sg25
Nsg2420
g0
(g58
g59
(lp5109
g5072
ag5073
atp5110
Rp5111
(dp5112
g24
I00
sg30
I01
sg31
I00
sg65
I1
sbsg31
I00
sg44
g66
sg46
I55
sg47
g5104
sbsVak9PFL2L3Residual
p5113
g0
(g1415
g2
Ntp5114
Rp5115
(dp5116
g17
g2418
sg18
(lp5117
g2420
asg24
I00
sg25
Nsg2420
g0
(g58
g59
(lp5118
g5072
ag5073
ag5074
atp5119
Rp5120
(dp5121
g24
I00
sg30
I01
sg31
I00
sg65
I1
sbsg31
I00
sg44
g66
sg46
I55
sg47
g5113
sbsg5072
g0
(g1415
g2
Ntp5122
Rp5123
(dp5124
g17
g2480
sg18
(lp5125
g2398
ag2399
asg24
I00
sg25
Nsg2398
g0
(g26
g2
Ntp5126
Rp5127
(dp5128
g24
I00
sg30
I01
sg31
I00
sg32
g2485
sbsg31
I00
sg2399
g0
(g26
g2
Ntp5129
Rp5130
(dp5131
g24
I00
sg30
I01
sg31
I01
sg32
g5062
sbsg44
g2413
sg46
I105
sg47
g5072
sbsg5073
g0
(g1415
g2
Ntp5132
Rp5133
(dp5134
g17
g2480
sg18
(lp5135
g2398
ag2399
asg24
I00
sg25
Nsg2398
g0
(g26
g2
Ntp5136
Rp5137
(dp5138
g24
I00
sg30
I01
sg31
I00
sg32
g2496
sbsg31
I00
sg2399
g0
(g26
g2
Ntp5139
Rp5140
(dp5141
g24
I00
sg30
I01
sg31
I01
sg32
g5062
sbsg44
g2413
sg46
I133
sg47
g5073
sbsg5074
g0
(g1415
g2
Ntp5142
Rp5143
(dp5144
g17
g2480
sg18
(lp5145
g2398
ag2399
asg24
I00
sg25
Nsg2398
g0
(g26
g2
Ntp5146
Rp5147
(dp5148
g24
I00
sg30
I01
sg31
I00
sg32
g2507
sbsg31
I00
sg2399
g0
(g26
g2
Ntp5149
Rp5150
(dp5151
g24
I00
sg30
I01
sg31
I01
sg32
g5062
sbsg44
g2413
sg46
I161
sg47
g5074
sbsVic5CaloL1FastL2L3
p5152
g0
(g1415
g2
Ntp5153
Rp5154
(dp5155
g17
g2418
sg18
(lp5156
g2420
asg24
I00
sg25
Nsg2420
g0
(g58
g59
(lp5157
g3224
aVic5CaloL2Relative
p5158
aVic5CaloL3Absolute
p5159
atp5160
Rp5161
(dp5162
g24
I00
sg30
I01
sg31
I00
sg65
I1
sbsg31
I00
sg44
g2413
sg46
I605
sg47
g5152
sbsVic5CaloL1FastL2L3L6
p5163
g0
(g1415
g2
Ntp5164
Rp5165
(dp5166
g17
g2418
sg18
(lp5167
g2420
asg24
I00
sg25
Nsg2420
g0
(g58
g59
(lp5168
Vic5CaloL1Offset
p5169
ag5158
ag5159
aVic5CaloL6SLB
p5170
atp5171
Rp5172
(dp5173
g24
I00
sg30
I01
sg31
I00
sg65
I1
sbsg31
I00
sg44
g2413
sg46
I766
sg47
g5163
sbsVic5CaloL1FastL2L3Residual
p5174
g0
(g1415
g2
Ntp5175
Rp5176
(dp5177
g17
g2418
sg18
(lp5178
g2420
asg24
I00
sg25
Nsg2420
g0
(g58
g59
(lp5179
Vic5CaloL1Fastjet
p5180
ag5158
ag5159
aVic5CaloResidual
p5181
atp5182
Rp5183
(dp5184
g24
I00
sg30
I01
sg31
I00
sg65
I1
sbsg31
I00
sg44
g66
sg46
I55
sg47
g5174
sbsg5180
g0
(g1415
g2
Ntp5185
Rp5186
(dp5187
g17
g2396
sg18
(lp5188
g2398
ag2399
ag2400
asg24
I00
sg25
Nsg2398
g0
(g26
g2
Ntp5189
Rp5190
(dp5191
g24
I00
sg30
I01
sg31
I00
sg32
g2404
sbsg31
I00
sg2399
g0
(g26
g2
Ntp5192
Rp5193
(dp5194
g24
I00
sg30
I01
sg31
I01
sg32
VIC5Calo
p5195
sbsg2400
g0
(g85
g2
Ntp5196
Rp5197
(dp5198
g24
I00
sg30
I01
sg31
I00
sg89
g3265
sg91
g43
sg92
g43
sbsg44
g2413
sg46
I52
sg47
g5180
sbsVic5CaloL1L2L3
p5199
g0
(g1415
g2
Ntp5200
Rp5201
(dp5202
g17
g2418
sg18
(lp5203
g2420
asg24
I00
sg25
Nsg2420
g0
(g58
g59
(lp5204
g5169
ag5158
ag5159
atp5205
Rp5206
(dp5207
g24
I00
sg30
I01
sg31
I00
sg65
I1
sbsg31
I00
sg44
g66
sg46
I55
sg47
g5199
sbsVic5CaloL1L2L3Residual
p5208
g0
(g1415
g2
Ntp5209
Rp5210
(dp5211
g17
g2418
sg18
(lp5212
g2420
asg24
I00
sg25
Nsg2420
g0
(g58
g59
(lp5213
g5169
ag5158
ag5159
ag5181
atp5214
Rp5215
(dp5216
g24
I00
sg30
I01
sg31
I00
sg65
I1
sbsg31
I00
sg44
g66
sg46
I55
sg47
g5208
sbsg5169
g0
(g1415
g2
Ntp5217
Rp5218
(dp5219
g17
g2441
sg18
(lp5220
g2398
ag2399
ag2443
ag2444
asg24
I00
sg25
Nsg2398
g0
(g26
g2
Ntp5221
Rp5222
(dp5223
g24
I00
sg30
I01
sg31
I00
sg32
g2448
sbsg31
I00
sg2399
g0
(g26
g2
Ntp5224
Rp5225
(dp5226
g24
I00
sg30
I01
sg31
I01
sg32
g5195
sbsg2443
g0
(g26
g2
Ntp5227
Rp5228
(dp5229
g24
I00
sg30
I01
sg31
I00
sg32
g2455
sbsg2444
g0
(g33
g2
Ntp5230
Rp5231
(dp5232
g24
I00
sg30
I01
sg31
I00
sg32
I4
sbsg44
g2413
sg46
I14
sg47
g5169
sbsVic5CaloL2L3
p5233
g0
(g1415
g2
Ntp5234
Rp5235
(dp5236
g17
g2418
sg18
(lp5237
g2420
asg24
I00
sg25
Nsg2420
g0
(g58
g59
(lp5238
g5158
ag5159
atp5239
Rp5240
(dp5241
g24
I00
sg30
I01
sg31
I00
sg65
I1
sbsg31
I00
sg44
g66
sg46
I55
sg47
g5233
sbsVic5CaloL2L3L6
p5242
g0
(g1415
g2
Ntp5243
Rp5244
(dp5245
g17
g2418
sg18
(lp5246
g2420
asg24
I00
sg25
Nsg2420
g0
(g58
g59
(lp5247
g5158
ag5159
ag5170
atp5248
Rp5249
(dp5250
g24
I00
sg30
I01
sg31
I00
sg65
I1
sbsg31
I00
sg44
g2413
sg46
I746
sg47
g5242
sbsVic5CaloL2L3Residual
p5251
g0
(g1415
g2
Ntp5252
Rp5253
(dp5254
g17
g2418
sg18
(lp5255
g2420
asg24
I00
sg25
Nsg2420
g0
(g58
g59
(lp5256
g5158
ag5159
ag5181
atp5257
Rp5258
(dp5259
g24
I00
sg30
I01
sg31
I00
sg65
I1
sbsg31
I00
sg44
g66
sg46
I55
sg47
g5251
sbsg5158
g0
(g1415
g2
Ntp5260
Rp5261
(dp5262
g17
g2480
sg18
(lp5263
g2398
ag2399
asg24
I00
sg25
Nsg2398
g0
(g26
g2
Ntp5264
Rp5265
(dp5266
g24
I00
sg30
I01
sg31
I00
sg32
g2485
sbsg31
I00
sg2399
g0
(g26
g2
Ntp5267
Rp5268
(dp5269
g24
I00
sg30
I01
sg31
I01
sg32
g5195
sbsg44
g2413
sg46
I88
sg47
g5158
sbsg5159
g0
(g1415
g2
Ntp5270
Rp5271
(dp5272
g17
g2480
sg18
(lp5273
g2398
ag2399
asg24
I00
sg25
Nsg2398
g0
(g26
g2
Ntp5274
Rp5275
(dp5276
g24
I00
sg30
I01
sg31
I00
sg32
g2496
sbsg31
I00
sg2399
g0
(g26
g2
Ntp5277
Rp5278
(dp5279
g24
I00
sg30
I01
sg31
I01
sg32
g5195
sbsg44
g2413
sg46
I117
sg47
g5159
sbsg5170
g0
(g1415
g2
Ntp5280
Rp5281
(dp5282
g17
g3351
sg18
(lp5283
g2398
ag2399
ag3353
ag3354
ag3355
asg24
I00
sg25
Nsg2398
g0
(g26
g2
Ntp5284
Rp5285
(dp5286
g24
I00
sg30
I01
sg31
I00
sg32
g3359
sbsg31
I00
sg2399
g0
(g26
g2
Ntp5287
Rp5288
(dp5289
g24
I00
sg30
I01
sg31
I00
sg32
g43
sbsg3353
g0
(g255
g2
Ntp5290
Rp5291
(dp5292
g24
I00
sg30
I01
sg31
I00
sg32
I01
sbsg3354
g0
(g85
g2
Ntp5293
Rp5294
(dp5295
g24
I00
sg30
I01
sg31
I00
sg89
Vic5CaloJetsSoftElectronTagInfos
p5296
sg91
g43
sg92
g43
sbsg3355
g0
(g85
g2
Ntp5297
Rp5298
(dp5299
g24
I00
sg30
I01
sg31
I00
sg89
Vic5CaloJetsSoftMuonTagInfos
p5300
sg91
g43
sg92
g43
sbsg44
g2413
sg46
I183
sg47
g5170
sbsg5181
g0
(g1415
g2
Ntp5301
Rp5302
(dp5303
g17
g2480
sg18
(lp5304
g2398
ag2399
asg24
I00
sg25
Nsg2398
g0
(g26
g2
Ntp5305
Rp5306
(dp5307
g24
I00
sg30
I01
sg31
I00
sg32
g2507
sbsg31
I00
sg2399
g0
(g26
g2
Ntp5308
Rp5309
(dp5310
g24
I00
sg30
I01
sg31
I01
sg32
g5195
sbsg44
g2413
sg46
I145
sg47
g5181
sbsVic5PFL1FastL2L3
p5311
g0
(g1415
g2
Ntp5312
Rp5313
(dp5314
g17
g2418
sg18
(lp5315
g2420
asg24
I00
sg25
Nsg2420
g0
(g58
g59
(lp5316
g3645
aVic5PFL2Relative
p5317
aVic5PFL3Absolute
p5318
atp5319
Rp5320
(dp5321
g24
I00
sg30
I01
sg31
I00
sg65
I1
sbsg31
I00
sg44
g2413
sg46
I616
sg47
g5311
sbsVic5PFL1FastL2L3L6
p5322
g0
(g1415
g2
Ntp5323
Rp5324
(dp5325
g17
g2418
sg18
(lp5326
g2420
asg24
I00
sg25
Nsg2420
g0
(g58
g59
(lp5327
g3645
ag5317
ag5318
aVic5PFL6SLB
p5328
atp5329
Rp5330
(dp5331
g24
I00
sg30
I01
sg31
I00
sg65
I1
sbsg31
I00
sg44
g2413
sg46
I775
sg47
g5322
sbsVic5PFL1FastL2L3Residual
p5332
g0
(g1415
g2
Ntp5333
Rp5334
(dp5335
g17
g2418
sg18
(lp5336
g2420
asg24
I00
sg25
Nsg2420
g0
(g58
g59
(lp5337
Vic5PFL1Fastjet
p5338
ag5317
ag5318
aVic5PFResidual
p5339
atp5340
Rp5341
(dp5342
g24
I00
sg30
I01
sg31
I00
sg65
I1
sbsg31
I00
sg44
g66
sg46
I55
sg47
g5332
sbsg5338
g0
(g1415
g2
Ntp5343
Rp5344
(dp5345
g17
g2396
sg18
(lp5346
g2398
ag2399
ag2400
asg24
I00
sg25
Nsg2398
g0
(g26
g2
Ntp5347
Rp5348
(dp5349
g24
I00
sg30
I01
sg31
I00
sg32
g2404
sbsg31
I00
sg2399
g0
(g26
g2
Ntp5350
Rp5351
(dp5352
g24
I00
sg30
I01
sg31
I01
sg32
VIC5PF
p5353
sbsg2400
g0
(g85
g2
Ntp5354
Rp5355
(dp5356
g24
I00
sg30
I01
sg31
I00
sg89
g2412
sg91
g43
sg92
g43
sbsg44
g2413
sg46
I82
sg47
g5338
sbsVic5PFL1L2L3
p5357
g0
(g1415
g2
Ntp5358
Rp5359
(dp5360
g17
g2418
sg18
(lp5361
g2420
asg24
I00
sg25
Nsg2420
g0
(g58
g59
(lp5362
Vic5PFL1Offset
p5363
ag5317
ag5318
atp5364
Rp5365
(dp5366
g24
I00
sg30
I01
sg31
I00
sg65
I1
sbsg31
I00
sg44
g66
sg46
I55
sg47
g5357
sbsVic5PFL1L2L3Residual
p5367
g0
(g1415
g2
Ntp5368
Rp5369
(dp5370
g17
g2418
sg18
(lp5371
g2420
asg24
I00
sg25
Nsg2420
g0
(g58
g59
(lp5372
g5363
ag5317
ag5318
ag5339
atp5373
Rp5374
(dp5375
g24
I00
sg30
I01
sg31
I00
sg65
I1
sbsg31
I00
sg44
g66
sg46
I55
sg47
g5367
sbsg5363
g0
(g1415
g2
Ntp5376
Rp5377
(dp5378
g17
g2441
sg18
(lp5379
g2398
ag2399
ag2443
ag2444
asg24
I00
sg25
Nsg2398
g0
(g26
g2
Ntp5380
Rp5381
(dp5382
g24
I00
sg30
I01
sg31
I00
sg32
g2448
sbsg31
I00
sg2399
g0
(g26
g2
Ntp5383
Rp5384
(dp5385
g24
I00
sg30
I01
sg31
I01
sg32
g5353
sbsg2443
g0
(g26
g2
Ntp5386
Rp5387
(dp5388
g24
I00
sg30
I01
sg31
I00
sg32
g2455
sbsg2444
g0
(g33
g2
Ntp5389
Rp5390
(dp5391
g24
I00
sg30
I01
sg31
I00
sg32
I4
sbsg44
g2413
sg46
I38
sg47
g5363
sbsVic5PFL2L3
p5392
g0
(g1415
g2
Ntp5393
Rp5394
(dp5395
g17
g2418
sg18
(lp5396
g2420
asg24
I00
sg25
Nsg2420
g0
(g58
g59
(lp5397
g5317
ag5318
atp5398
Rp5399
(dp5400
g24
I00
sg30
I01
sg31
I00
sg65
I1
sbsg31
I00
sg44
g66
sg46
I55
sg47
g5392
sbsVic5PFL2L3L6
p5401
g0
(g1415
g2
Ntp5402
Rp5403
(dp5404
g17
g2418
sg18
(lp5405
g2420
asg24
I00
sg25
Nsg2420
g0
(g58
g59
(lp5406
g5317
ag5318
ag5328
atp5407
Rp5408
(dp5409
g24
I00
sg30
I01
sg31
I00
sg65
I1
sbsg31
I00
sg44
g2413
sg46
I755
sg47
g5401
sbsVic5PFL2L3Residual
p5410
g0
(g1415
g2
Ntp5411
Rp5412
(dp5413
g17
g2418
sg18
(lp5414
g2420
asg24
I00
sg25
Nsg2420
g0
(g58
g59
(lp5415
g5317
ag5318
ag5339
atp5416
Rp5417
(dp5418
g24
I00
sg30
I01
sg31
I00
sg65
I1
sbsg31
I00
sg44
g66
sg46
I55
sg47
g5410
sbsg5317
g0
(g1415
g2
Ntp5419
Rp5420
(dp5421
g17
g2480
sg18
(lp5422
g2398
ag2399
asg24
I00
sg25
Nsg2398
g0
(g26
g2
Ntp5423
Rp5424
(dp5425
g24
I00
sg30
I01
sg31
I00
sg32
g2485
sbsg31
I00
sg2399
g0
(g26
g2
Ntp5426
Rp5427
(dp5428
g24
I00
sg30
I01
sg31
I01
sg32
g5353
sbsg44
g2413
sg46
I111
sg47
g5317
sbsg5318
g0
(g1415
g2
Ntp5429
Rp5430
(dp5431
g17
g2480
sg18
(lp5432
g2398
ag2399
asg24
I00
sg25
Nsg2398
g0
(g26
g2
Ntp5433
Rp5434
(dp5435
g24
I00
sg30
I01
sg31
I00
sg32
g2496
sbsg31
I00
sg2399
g0
(g26
g2
Ntp5436
Rp5437
(dp5438
g24
I00
sg30
I01
sg31
I01
sg32
g5353
sbsg44
g2413
sg46
I139
sg47
g5318
sbsg5328
g0
(g1415
g2
Ntp5439
Rp5440
(dp5441
g17
g3351
sg18
(lp5442
g2398
ag2399
ag3353
ag3354
ag3355
asg24
I00
sg25
Nsg2398
g0
(g26
g2
Ntp5443
Rp5444
(dp5445
g24
I00
sg30
I01
sg31
I00
sg32
g3359
sbsg31
I00
sg2399
g0
(g26
g2
Ntp5446
Rp5447
(dp5448
g24
I00
sg30
I01
sg31
I00
sg32
g43
sbsg3353
g0
(g255
g2
Ntp5449
Rp5450
(dp5451
g24
I00
sg30
I01
sg31
I00
sg32
I00
sbsg3354
g0
(g85
g2
Ntp5452
Rp5453
(dp5454
g24
I00
sg30
I01
sg31
I00
sg89
Vic5PFJetsSoftElectronTagInfos
p5455
sg91
g43
sg92
g43
sbsg3355
g0
(g85
g2
Ntp5456
Rp5457
(dp5458
g24
I00
sg30
I01
sg31
I00
sg89
Vic5PFJetsSoftMuonTagInfos
p5459
sg91
g43
sg92
g43
sbsg44
g2413
sg46
I200
sg47
g5328
sbsg5339
g0
(g1415
g2
Ntp5460
Rp5461
(dp5462
g17
g2480
sg18
(lp5463
g2398
ag2399
asg24
I00
sg25
Nsg2398
g0
(g26
g2
Ntp5464
Rp5465
(dp5466
g24
I00
sg30
I01
sg31
I00
sg32
g2507
sbsg31
I00
sg2399
g0
(g26
g2
Ntp5467
Rp5468
(dp5469
g24
I00
sg30
I01
sg31
I01
sg32
g5353
sbsg44
g2413
sg46
I167
sg47
g5339
sbsVkt4CaloL1FastL2L3
p5470
g0
(g1415
g2
Ntp5471
Rp5472
(dp5473
g17
g2418
sg18
(lp5474
g2420
asg24
I00
sg25
Nsg2420
g0
(g58
g59
(lp5475
g3224
aVkt4CaloL2Relative
p5476
aVkt4CaloL3Absolute
p5477
atp5478
Rp5479
(dp5480
g24
I00
sg30
I01
sg31
I00
sg65
I1
sbsg31
I00
sg44
g2413
sg46
I601
sg47
g5470
sbsVkt4CaloL1FastL2L3L6
p5481
g0
(g1415
g2
Ntp5482
Rp5483
(dp5484
g17
g2418
sg18
(lp5485
g2420
asg24
I00
sg25
Nsg2420
g0
(g58
g59
(lp5486
Vkt4CaloL1Offset
p5487
ag5476
ag5477
aVkt4CaloL6SLB
p5488
atp5489
Rp5490
(dp5491
g24
I00
sg30
I01
sg31
I00
sg65
I1
sbsg31
I00
sg44
g2413
sg46
I762
sg47
g5481
sbsVkt4CaloL1FastL2L3Residual
p5492
g0
(g1415
g2
Ntp5493
Rp5494
(dp5495
g17
g2418
sg18
(lp5496
g2420
asg24
I00
sg25
Nsg2420
g0
(g58
g59
(lp5497
Vkt4CaloL1Fastjet
p5498
ag5476
ag5477
aVkt4CaloResidual
p5499
atp5500
Rp5501
(dp5502
g24
I00
sg30
I01
sg31
I00
sg65
I1
sbsg31
I00
sg44
g66
sg46
I55
sg47
g5492
sbsg5498
g0
(g1415
g2
Ntp5503
Rp5504
(dp5505
g17
g2396
sg18
(lp5506
g2398
ag2399
ag2400
asg24
I00
sg25
Nsg2398
g0
(g26
g2
Ntp5507
Rp5508
(dp5509
g24
I00
sg30
I01
sg31
I00
sg32
g2404
sbsg31
I00
sg2399
g0
(g26
g2
Ntp5510
Rp5511
(dp5512
g24
I00
sg30
I01
sg31
I01
sg32
VKT4Calo
p5513
sbsg2400
g0
(g85
g2
Ntp5514
Rp5515
(dp5516
g24
I00
sg30
I01
sg31
I00
sg89
g3265
sg91
g43
sg92
g43
sbsg44
g2413
sg46
I50
sg47
g5498
sbsVkt4CaloL1L2L3
p5517
g0
(g1415
g2
Ntp5518
Rp5519
(dp5520
g17
g2418
sg18
(lp5521
g2420
asg24
I00
sg25
Nsg2420
g0
(g58
g59
(lp5522
g5487
ag5476
ag5477
atp5523
Rp5524
(dp5525
g24
I00
sg30
I01
sg31
I00
sg65
I1
sbsg31
I00
sg44
g66
sg46
I55
sg47
g5517
sbsVkt4CaloL1L2L3Residual
p5526
g0
(g1415
g2
Ntp5527
Rp5528
(dp5529
g17
g2418
sg18
(lp5530
g2420
asg24
I00
sg25
Nsg2420
g0
(g58
g59
(lp5531
g5487
ag5476
ag5477
ag5499
atp5532
Rp5533
(dp5534
g24
I00
sg30
I01
sg31
I00
sg65
I1
sbsg31
I00
sg44
g66
sg46
I55
sg47
g5526
sbsg5487
g0
(g1415
g2
Ntp5535
Rp5536
(dp5537
g17
g2441
sg18
(lp5538
g2398
ag2399
ag2443
ag2444
asg24
I00
sg25
Nsg2398
g0
(g26
g2
Ntp5539
Rp5540
(dp5541
g24
I00
sg30
I01
sg31
I00
sg32
g2448
sbsg31
I00
sg2399
g0
(g26
g2
Ntp5542
Rp5543
(dp5544
g24
I00
sg30
I01
sg31
I01
sg32
g5513
sbsg2443
g0
(g26
g2
Ntp5545
Rp5546
(dp5547
g24
I00
sg30
I01
sg31
I00
sg32
g2455
sbsg2444
g0
(g33
g2
Ntp5548
Rp5549
(dp5550
g24
I00
sg30
I01
sg31
I00
sg32
I4
sbsg44
g2413
sg46
I12
sg47
g5487
sbsVkt4CaloL2L3
p5551
g0
(g1415
g2
Ntp5552
Rp5553
(dp5554
g17
g2418
sg18
(lp5555
g2420
asg24
I00
sg25
Nsg2420
g0
(g58
g59
(lp5556
g5476
ag5477
atp5557
Rp5558
(dp5559
g24
I00
sg30
I01
sg31
I00
sg65
I1
sbsg31
I00
sg44
g66
sg46
I55
sg47
g5551
sbsVkt4CaloL2L3L6
p5560
g0
(g1415
g2
Ntp5561
Rp5562
(dp5563
g17
g2418
sg18
(lp5564
g2420
asg24
I00
sg25
Nsg2420
g0
(g58
g59
(lp5565
g5476
ag5477
ag5488
atp5566
Rp5567
(dp5568
g24
I00
sg30
I01
sg31
I00
sg65
I1
sbsg31
I00
sg44
g2413
sg46
I742
sg47
g5560
sbsVkt4CaloL2L3Residual
p5569
g0
(g1415
g2
Ntp5570
Rp5571
(dp5572
g17
g2418
sg18
(lp5573
g2420
asg24
I00
sg25
Nsg2420
g0
(g58
g59
(lp5574
g5476
ag5477
ag5499
atp5575
Rp5576
(dp5577
g24
I00
sg30
I01
sg31
I00
sg65
I1
sbsg31
I00
sg44
g66
sg46
I55
sg47
g5569
sbsg5476
g0
(g1415
g2
Ntp5578
Rp5579
(dp5580
g17
g2480
sg18
(lp5581
g2398
ag2399
asg24
I00
sg25
Nsg2398
g0
(g26
g2
Ntp5582
Rp5583
(dp5584
g24
I00
sg30
I01
sg31
I00
sg32
g2485
sbsg31
I00
sg2399
g0
(g26
g2
Ntp5585
Rp5586
(dp5587
g24
I00
sg30
I01
sg31
I01
sg32
g5513
sbsg44
g2413
sg46
I86
sg47
g5476
sbsg5477
g0
(g1415
g2
Ntp5588
Rp5589
(dp5590
g17
g2480
sg18
(lp5591
g2398
ag2399
asg24
I00
sg25
Nsg2398
g0
(g26
g2
Ntp5592
Rp5593
(dp5594
g24
I00
sg30
I01
sg31
I00
sg32
g2496
sbsg31
I00
sg2399
g0
(g26
g2
Ntp5595
Rp5596
(dp5597
g24
I00
sg30
I01
sg31
I01
sg32
g5513
sbsg44
g2413
sg46
I115
sg47
g5477
sbsg5488
g0
(g1415
g2
Ntp5598
Rp5599
(dp5600
g17
g3351
sg18
(lp5601
g2398
ag2399
ag3353
ag3354
ag3355
asg24
I00
sg25
Nsg2398
g0
(g26
g2
Ntp5602
Rp5603
(dp5604
g24
I00
sg30
I01
sg31
I00
sg32
g3359
sbsg31
I00
sg2399
g0
(g26
g2
Ntp5605
Rp5606
(dp5607
g24
I00
sg30
I01
sg31
I00
sg32
g43
sbsg3353
g0
(g255
g2
Ntp5608
Rp5609
(dp5610
g24
I00
sg30
I01
sg31
I00
sg32
I01
sbsg3354
g0
(g85
g2
Ntp5611
Rp5612
(dp5613
g24
I00
sg30
I01
sg31
I00
sg89
Vkt4CaloJetsSoftElectronTagInfos
p5614
sg91
g43
sg92
g43
sbsg3355
g0
(g85
g2
Ntp5615
Rp5616
(dp5617
g24
I00
sg30
I01
sg31
I00
sg89
Vkt4CaloJetsSoftMuonTagInfos
p5618
sg91
g43
sg92
g43
sbsg44
g2413
sg46
I175
sg47
g5488
sbsg5499
g0
(g1415
g2
Ntp5619
Rp5620
(dp5621
g17
g2480
sg18
(lp5622
g2398
ag2399
asg24
I00
sg25
Nsg2398
g0
(g26
g2
Ntp5623
Rp5624
(dp5625
g24
I00
sg30
I01
sg31
I00
sg32
g2507
sbsg31
I00
sg2399
g0
(g26
g2
Ntp5626
Rp5627
(dp5628
g24
I00
sg30
I01
sg31
I01
sg32
g5513
sbsg44
g2413
sg46
I143
sg47
g5499
sbsVkt4PFL1FastL2L3
p5629
g0
(g1415
g2
Ntp5630
Rp5631
(dp5632
g17
g2418
sg18
(lp5633
g2420
asg24
I00
sg25
Nsg2420
g0
(g58
g59
(lp5634
g3645
aVkt4PFL2Relative
p5635
aVkt4PFL3Absolute
p5636
atp5637
Rp5638
(dp5639
g24
I00
sg30
I01
sg31
I00
sg65
I1
sbsg31
I00
sg44
g2413
sg46
I612
sg47
g5629
sbsVkt4PFL1FastL2L3L6
p5640
g0
(g1415
g2
Ntp5641
Rp5642
(dp5643
g17
g2418
sg18
(lp5644
g2420
asg24
I00
sg25
Nsg2420
g0
(g58
g59
(lp5645
g3645
ag5635
ag5636
aVkt4PFL6SLB
p5646
atp5647
Rp5648
(dp5649
g24
I00
sg30
I01
sg31
I00
sg65
I1
sbsg31
I00
sg44
g2413
sg46
I771
sg47
g5640
sbsVkt4PFL1FastL2L3Residual
p5650
g0
(g1415
g2
Ntp5651
Rp5652
(dp5653
g17
g2418
sg18
(lp5654
g2420
asg24
I00
sg25
Nsg2420
g0
(g58
g59
(lp5655
Vkt4PFL1Fastjet
p5656
ag5635
ag5636
aVkt4PFResidual
p5657
atp5658
Rp5659
(dp5660
g24
I00
sg30
I01
sg31
I00
sg65
I1
sbsg31
I00
sg44
g66
sg46
I55
sg47
g5650
sbsg5656
g0
(g1415
g2
Ntp5661
Rp5662
(dp5663
g17
g2396
sg18
(lp5664
g2398
ag2399
ag2400
asg24
I00
sg25
Nsg2398
g0
(g26
g2
Ntp5665
Rp5666
(dp5667
g24
I00
sg30
I01
sg31
I00
sg32
g2404
sbsg31
I00
sg2399
g0
(g26
g2
Ntp5668
Rp5669
(dp5670
g24
I00
sg30
I01
sg31
I01
sg32
VKT4PF
p5671
sbsg2400
g0
(g85
g2
Ntp5672
Rp5673
(dp5674
g24
I00
sg30
I01
sg31
I00
sg89
g2412
sg91
g43
sg92
g43
sbsg44
g2413
sg46
I80
sg47
g5656
sbsVkt4PFL1L2L3
p5675
g0
(g1415
g2
Ntp5676
Rp5677
(dp5678
g17
g2418
sg18
(lp5679
g2420
asg24
I00
sg25
Nsg2420
g0
(g58
g59
(lp5680
Vkt4PFL1Offset
p5681
ag5635
ag5636
atp5682
Rp5683
(dp5684
g24
I00
sg30
I01
sg31
I00
sg65
I1
sbsg31
I00
sg44
g66
sg46
I55
sg47
g5675
sbsVkt4PFL1L2L3Residual
p5685
g0
(g1415
g2
Ntp5686
Rp5687
(dp5688
g17
g2418
sg18
(lp5689
g2420
asg24
I00
sg25
Nsg2420
g0
(g58
g59
(lp5690
g5681
ag5635
ag5636
ag5657
atp5691
Rp5692
(dp5693
g24
I00
sg30
I01
sg31
I00
sg65
I1
sbsg31
I00
sg44
g66
sg46
I55
sg47
g5685
sbsg5681
g0
(g1415
g2
Ntp5694
Rp5695
(dp5696
g17
g2441
sg18
(lp5697
g2398
ag2399
ag2443
ag2444
asg24
I00
sg25
Nsg2398
g0
(g26
g2
Ntp5698
Rp5699
(dp5700
g24
I00
sg30
I01
sg31
I00
sg32
g2448
sbsg31
I00
sg2399
g0
(g26
g2
Ntp5701
Rp5702
(dp5703
g24
I00
sg30
I01
sg31
I01
sg32
g5671
sbsg2443
g0
(g26
g2
Ntp5704
Rp5705
(dp5706
g24
I00
sg30
I01
sg31
I00
sg32
g2455
sbsg2444
g0
(g33
g2
Ntp5707
Rp5708
(dp5709
g24
I00
sg30
I01
sg31
I00
sg32
I4
sbsg44
g2413
sg46
I36
sg47
g5681
sbsVkt4PFL2L3
p5710
g0
(g1415
g2
Ntp5711
Rp5712
(dp5713
g17
g2418
sg18
(lp5714
g2420
asg24
I00
sg25
Nsg2420
g0
(g58
g59
(lp5715
g5635
ag5636
atp5716
Rp5717
(dp5718
g24
I00
sg30
I01
sg31
I00
sg65
I1
sbsg31
I00
sg44
g66
sg46
I55
sg47
g5710
sbsVkt4PFL2L3L6
p5719
g0
(g1415
g2
Ntp5720
Rp5721
(dp5722
g17
g2418
sg18
(lp5723
g2420
asg24
I00
sg25
Nsg2420
g0
(g58
g59
(lp5724
g5635
ag5636
ag5646
atp5725
Rp5726
(dp5727
g24
I00
sg30
I01
sg31
I00
sg65
I1
sbsg31
I00
sg44
g2413
sg46
I751
sg47
g5719
sbsVkt4PFL2L3Residual
p5728
g0
(g1415
g2
Ntp5729
Rp5730
(dp5731
g17
g2418
sg18
(lp5732
g2420
asg24
I00
sg25
Nsg2420
g0
(g58
g59
(lp5733
g5635
ag5636
ag5657
atp5734
Rp5735
(dp5736
g24
I00
sg30
I01
sg31
I00
sg65
I1
sbsg31
I00
sg44
g66
sg46
I55
sg47
g5728
sbsg5635
g0
(g1415
g2
Ntp5737
Rp5738
(dp5739
g17
g2480
sg18
(lp5740
g2398
ag2399
asg24
I00
sg25
Nsg2398
g0
(g26
g2
Ntp5741
Rp5742
(dp5743
g24
I00
sg30
I01
sg31
I00
sg32
g2485
sbsg31
I00
sg2399
g0
(g26
g2
Ntp5744
Rp5745
(dp5746
g24
I00
sg30
I01
sg31
I01
sg32
g5671
sbsg44
g2413
sg46
I109
sg47
g5635
sbsg5636
g0
(g1415
g2
Ntp5747
Rp5748
(dp5749
g17
g2480
sg18
(lp5750
g2398
ag2399
asg24
I00
sg25
Nsg2398
g0
(g26
g2
Ntp5751
Rp5752
(dp5753
g24
I00
sg30
I01
sg31
I00
sg32
g2496
sbsg31
I00
sg2399
g0
(g26
g2
Ntp5754
Rp5755
(dp5756
g24
I00
sg30
I01
sg31
I01
sg32
g5671
sbsg44
g2413
sg46
I137
sg47
g5636
sbsg5646
g0
(g1415
g2
Ntp5757
Rp5758
(dp5759
g17
g3351
sg18
(lp5760
g2398
ag2399
ag3353
ag3354
ag3355
asg24
I00
sg25
Nsg2398
g0
(g26
g2
Ntp5761
Rp5762
(dp5763
g24
I00
sg30
I01
sg31
I00
sg32
g3359
sbsg31
I00
sg2399
g0
(g26
g2
Ntp5764
Rp5765
(dp5766
g24
I00
sg30
I01
sg31
I00
sg32
g43
sbsg3353
g0
(g255
g2
Ntp5767
Rp5768
(dp5769
g24
I00
sg30
I01
sg31
I00
sg32
I00
sbsg3354
g0
(g85
g2
Ntp5770
Rp5771
(dp5772
g24
I00
sg30
I01
sg31
I00
sg89
Vkt4PFJetsSoftElectronTagInfos
p5773
sg91
g43
sg92
g43
sbsg3355
g0
(g85
g2
Ntp5774
Rp5775
(dp5776
g24
I00
sg30
I01
sg31
I00
sg89
Vkt4PFJetsSoftMuonTagInfos
p5777
sg91
g43
sg92
g43
sbsg44
g2413
sg46
I192
sg47
g5646
sbsg5657
g0
(g1415
g2
Ntp5778
Rp5779
(dp5780
g17
g2480
sg18
(lp5781
g2398
ag2399
asg24
I00
sg25
Nsg2398
g0
(g26
g2
Ntp5782
Rp5783
(dp5784
g24
I00
sg30
I01
sg31
I00
sg32
g2507
sbsg31
I00
sg2399
g0
(g26
g2
Ntp5785
Rp5786
(dp5787
g24
I00
sg30
I01
sg31
I01
sg32
g5671
sbsg44
g2413
sg46
I165
sg47
g5657
sbsVkt6CaloL1FastL2L3
p5788
g0
(g1415
g2
Ntp5789
Rp5790
(dp5791
g17
g2418
sg18
(lp5792
g2420
asg24
I00
sg25
Nsg2420
g0
(g58
g59
(lp5793
g3224
aVkt6CaloL2Relative
p5794
aVkt6CaloL3Absolute
p5795
atp5796
Rp5797
(dp5798
g24
I00
sg30
I01
sg31
I00
sg65
I1
sbsg31
I00
sg44
g2413
sg46
I603
sg47
g5788
sbsVkt6CaloL1FastL2L3L6
p5799
g0
(g1415
g2
Ntp5800
Rp5801
(dp5802
g17
g2418
sg18
(lp5803
g2420
asg24
I00
sg25
Nsg2420
g0
(g58
g59
(lp5804
Vkt6CaloL1Offset
p5805
ag5794
ag5795
aVkt6CaloL6SLB
p5806
atp5807
Rp5808
(dp5809
g24
I00
sg30
I01
sg31
I00
sg65
I1
sbsg31
I00
sg44
g2413
sg46
I764
sg47
g5799
sbsVkt6CaloL1FastL2L3Residual
p5810
g0
(g1415
g2
Ntp5811
Rp5812
(dp5813
g17
g2418
sg18
(lp5814
g2420
asg24
I00
sg25
Nsg2420
g0
(g58
g59
(lp5815
Vkt6CaloL1Fastjet
p5816
ag5794
ag5795
aVkt6CaloResidual
p5817
atp5818
Rp5819
(dp5820
g24
I00
sg30
I01
sg31
I00
sg65
I1
sbsg31
I00
sg44
g66
sg46
I55
sg47
g5810
sbsg5816
g0
(g1415
g2
Ntp5821
Rp5822
(dp5823
g17
g2396
sg18
(lp5824
g2398
ag2399
ag2400
asg24
I00
sg25
Nsg2398
g0
(g26
g2
Ntp5825
Rp5826
(dp5827
g24
I00
sg30
I01
sg31
I00
sg32
g2404
sbsg31
I00
sg2399
g0
(g26
g2
Ntp5828
Rp5829
(dp5830
g24
I00
sg30
I01
sg31
I01
sg32
VKT6Calo
p5831
sbsg2400
g0
(g85
g2
Ntp5832
Rp5833
(dp5834
g24
I00
sg30
I01
sg31
I00
sg89
g3265
sg91
g43
sg92
g43
sbsg44
g2413
sg46
I51
sg47
g5816
sbsVkt6CaloL1L2L3
p5835
g0
(g1415
g2
Ntp5836
Rp5837
(dp5838
g17
g2418
sg18
(lp5839
g2420
asg24
I00
sg25
Nsg2420
g0
(g58
g59
(lp5840
g5805
ag5794
ag5795
atp5841
Rp5842
(dp5843
g24
I00
sg30
I01
sg31
I00
sg65
I1
sbsg31
I00
sg44
g66
sg46
I55
sg47
g5835
sbsVkt6CaloL1L2L3Residual
p5844
g0
(g1415
g2
Ntp5845
Rp5846
(dp5847
g17
g2418
sg18
(lp5848
g2420
asg24
I00
sg25
Nsg2420
g0
(g58
g59
(lp5849
g5805
ag5794
ag5795
ag5817
atp5850
Rp5851
(dp5852
g24
I00
sg30
I01
sg31
I00
sg65
I1
sbsg31
I00
sg44
g66
sg46
I55
sg47
g5844
sbsg5805
g0
(g1415
g2
Ntp5853
Rp5854
(dp5855
g17
g2441
sg18
(lp5856
g2398
ag2399
ag2443
ag2444
asg24
I00
sg25
Nsg2398
g0
(g26
g2
Ntp5857
Rp5858
(dp5859
g24
I00
sg30
I01
sg31
I00
sg32
g2448
sbsg31
I00
sg2399
g0
(g26
g2
Ntp5860
Rp5861
(dp5862
g24
I00
sg30
I01
sg31
I01
sg32
g5831
sbsg2443
g0
(g26
g2
Ntp5863
Rp5864
(dp5865
g24
I00
sg30
I01
sg31
I00
sg32
g2455
sbsg2444
g0
(g33
g2
Ntp5866
Rp5867
(dp5868
g24
I00
sg30
I01
sg31
I00
sg32
I4
sbsg44
g2413
sg46
I13
sg47
g5805
sbsVkt6CaloL2L3
p5869
g0
(g1415
g2
Ntp5870
Rp5871
(dp5872
g17
g2418
sg18
(lp5873
g2420
asg24
I00
sg25
Nsg2420
g0
(g58
g59
(lp5874
g5794
ag5795
atp5875
Rp5876
(dp5877
g24
I00
sg30
I01
sg31
I00
sg65
I1
sbsg31
I00
sg44
g66
sg46
I55
sg47
g5869
sbsVkt6CaloL2L3L6
p5878
g0
(g1415
g2
Ntp5879
Rp5880
(dp5881
g17
g2418
sg18
(lp5882
g2420
asg24
I00
sg25
Nsg2420
g0
(g58
g59
(lp5883
g5794
ag5795
ag5806
atp5884
Rp5885
(dp5886
g24
I00
sg30
I01
sg31
I00
sg65
I1
sbsg31
I00
sg44
g2413
sg46
I744
sg47
g5878
sbsVkt6CaloL2L3Residual
p5887
g0
(g1415
g2
Ntp5888
Rp5889
(dp5890
g17
g2418
sg18
(lp5891
g2420
asg24
I00
sg25
Nsg2420
g0
(g58
g59
(lp5892
g5794
ag5795
ag5817
atp5893
Rp5894
(dp5895
g24
I00
sg30
I01
sg31
I00
sg65
I1
sbsg31
I00
sg44
g66
sg46
I55
sg47
g5887
sbsg5794
g0
(g1415
g2
Ntp5896
Rp5897
(dp5898
g17
g2480
sg18
(lp5899
g2398
ag2399
asg24
I00
sg25
Nsg2398
g0
(g26
g2
Ntp5900
Rp5901
(dp5902
g24
I00
sg30
I01
sg31
I00
sg32
g2485
sbsg31
I00
sg2399
g0
(g26
g2
Ntp5903
Rp5904
(dp5905
g24
I00
sg30
I01
sg31
I01
sg32
g5831
sbsg44
g2413
sg46
I87
sg47
g5794
sbsg5795
g0
(g1415
g2
Ntp5906
Rp5907
(dp5908
g17
g2480
sg18
(lp5909
g2398
ag2399
asg24
I00
sg25
Nsg2398
g0
(g26
g2
Ntp5910
Rp5911
(dp5912
g24
I00
sg30
I01
sg31
I00
sg32
g2496
sbsg31
I00
sg2399
g0
(g26
g2
Ntp5913
Rp5914
(dp5915
g24
I00
sg30
I01
sg31
I01
sg32
g5831
sbsg44
g2413
sg46
I116
sg47
g5795
sbsg5806
g0
(g1415
g2
Ntp5916
Rp5917
(dp5918
g17
g3351
sg18
(lp5919
g2398
ag2399
ag3353
ag3354
ag3355
asg24
I00
sg25
Nsg2398
g0
(g26
g2
Ntp5920
Rp5921
(dp5922
g24
I00
sg30
I01
sg31
I00
sg32
g3359
sbsg31
I00
sg2399
g0
(g26
g2
Ntp5923
Rp5924
(dp5925
g24
I00
sg30
I01
sg31
I00
sg32
g43
sbsg3353
g0
(g255
g2
Ntp5926
Rp5927
(dp5928
g24
I00
sg30
I01
sg31
I00
sg32
I01
sbsg3354
g0
(g85
g2
Ntp5929
Rp5930
(dp5931
g24
I00
sg30
I01
sg31
I00
sg89
Vkt6CaloJetsSoftElectronTagInfos
p5932
sg91
g43
sg92
g43
sbsg3355
g0
(g85
g2
Ntp5933
Rp5934
(dp5935
g24
I00
sg30
I01
sg31
I00
sg89
Vkt6CaloJetsSoftMuonTagInfos
p5936
sg91
g43
sg92
g43
sbsg44
g2413
sg46
I179
sg47
g5806
sbsg5817
g0
(g1415
g2
Ntp5937
Rp5938
(dp5939
g17
g2480
sg18
(lp5940
g2398
ag2399
asg24
I00
sg25
Nsg2398
g0
(g26
g2
Ntp5941
Rp5942
(dp5943
g24
I00
sg30
I01
sg31
I00
sg32
g2507
sbsg31
I00
sg2399
g0
(g26
g2
Ntp5944
Rp5945
(dp5946
g24
I00
sg30
I01
sg31
I01
sg32
g5831
sbsg44
g2413
sg46
I144
sg47
g5817
sbsVkt6PFL1FastL2L3
p5947
g0
(g1415
g2
Ntp5948
Rp5949
(dp5950
g17
g2418
sg18
(lp5951
g2420
asg24
I00
sg25
Nsg2420
g0
(g58
g59
(lp5952
g3645
aVkt6PFL2Relative
p5953
aVkt6PFL3Absolute
p5954
atp5955
Rp5956
(dp5957
g24
I00
sg30
I01
sg31
I00
sg65
I1
sbsg31
I00
sg44
g2413
sg46
I614
sg47
g5947
sbsVkt6PFL1FastL2L3L6
p5958
g0
(g1415
g2
Ntp5959
Rp5960
(dp5961
g17
g2418
sg18
(lp5962
g2420
asg24
I00
sg25
Nsg2420
g0
(g58
g59
(lp5963
g3645
ag5953
ag5954
aVkt6PFL6SLB
p5964
atp5965
Rp5966
(dp5967
g24
I00
sg30
I01
sg31
I00
sg65
I1
sbsg31
I00
sg44
g2413
sg46
I773
sg47
g5958
sbsVkt6PFL1FastL2L3Residual
p5968
g0
(g1415
g2
Ntp5969
Rp5970
(dp5971
g17
g2418
sg18
(lp5972
g2420
asg24
I00
sg25
Nsg2420
g0
(g58
g59
(lp5973
Vkt6PFL1Fastjet
p5974
ag5953
ag5954
aVkt6PFResidual
p5975
atp5976
Rp5977
(dp5978
g24
I00
sg30
I01
sg31
I00
sg65
I1
sbsg31
I00
sg44
g66
sg46
I55
sg47
g5968
sbsg5974
g0
(g1415
g2
Ntp5979
Rp5980
(dp5981
g17
g2396
sg18
(lp5982
g2398
ag2399
ag2400
asg24
I00
sg25
Nsg2398
g0
(g26
g2
Ntp5983
Rp5984
(dp5985
g24
I00
sg30
I01
sg31
I00
sg32
g2404
sbsg31
I00
sg2399
g0
(g26
g2
Ntp5986
Rp5987
(dp5988
g24
I00
sg30
I01
sg31
I01
sg32
VKT6PF
p5989
sbsg2400
g0
(g85
g2
Ntp5990
Rp5991
(dp5992
g24
I00
sg30
I01
sg31
I00
sg89
g2412
sg91
g43
sg92
g43
sbsg44
g2413
sg46
I81
sg47
g5974
sbsVkt6PFL1L2L3
p5993
g0
(g1415
g2
Ntp5994
Rp5995
(dp5996
g17
g2418
sg18
(lp5997
g2420
asg24
I00
sg25
Nsg2420
g0
(g58
g59
(lp5998
Vkt6PFL1Offset
p5999
ag5953
ag5954
atp6000
Rp6001
(dp6002
g24
I00
sg30
I01
sg31
I00
sg65
I1
sbsg31
I00
sg44
g66
sg46
I55
sg47
g5993
sbsVkt6PFL1L2L3Residual
p6003
g0
(g1415
g2
Ntp6004
Rp6005
(dp6006
g17
g2418
sg18
(lp6007
g2420
asg24
I00
sg25
Nsg2420
g0
(g58
g59
(lp6008
g5999
ag5953
ag5954
ag5975
atp6009
Rp6010
(dp6011
g24
I00
sg30
I01
sg31
I00
sg65
I1
sbsg31
I00
sg44
g66
sg46
I55
sg47
g6003
sbsg5999
g0
(g1415
g2
Ntp6012
Rp6013
(dp6014
g17
g2441
sg18
(lp6015
g2398
ag2399
ag2443
ag2444
asg24
I00
sg25
Nsg2398
g0
(g26
g2
Ntp6016
Rp6017
(dp6018
g24
I00
sg30
I01
sg31
I00
sg32
g2448
sbsg31
I00
sg2399
g0
(g26
g2
Ntp6019
Rp6020
(dp6021
g24
I00
sg30
I01
sg31
I01
sg32
g5989
sbsg2443
g0
(g26
g2
Ntp6022
Rp6023
(dp6024
g24
I00
sg30
I01
sg31
I00
sg32
g2455
sbsg2444
g0
(g33
g2
Ntp6025
Rp6026
(dp6027
g24
I00
sg30
I01
sg31
I00
sg32
I4
sbsg44
g2413
sg46
I37
sg47
g5999
sbsVkt6PFL2L3
p6028
g0
(g1415
g2
Ntp6029
Rp6030
(dp6031
g17
g2418
sg18
(lp6032
g2420
asg24
I00
sg25
Nsg2420
g0
(g58
g59
(lp6033
g5953
ag5954
atp6034
Rp6035
(dp6036
g24
I00
sg30
I01
sg31
I00
sg65
I1
sbsg31
I00
sg44
g66
sg46
I55
sg47
g6028
sbsVkt6PFL2L3L6
p6037
g0
(g1415
g2
Ntp6038
Rp6039
(dp6040
g17
g2418
sg18
(lp6041
g2420
asg24
I00
sg25
Nsg2420
g0
(g58
g59
(lp6042
g5953
ag5954
ag5964
atp6043
Rp6044
(dp6045
g24
I00
sg30
I01
sg31
I00
sg65
I1
sbsg31
I00
sg44
g2413
sg46
I753
sg47
g6037
sbsVkt6PFL2L3Residual
p6046
g0
(g1415
g2
Ntp6047
Rp6048
(dp6049
g17
g2418
sg18
(lp6050
g2420
asg24
I00
sg25
Nsg2420
g0
(g58
g59
(lp6051
g5953
ag5954
ag5975
atp6052
Rp6053
(dp6054
g24
I00
sg30
I01
sg31
I00
sg65
I1
sbsg31
I00
sg44
g66
sg46
I55
sg47
g6046
sbsg5953
g0
(g1415
g2
Ntp6055
Rp6056
(dp6057
g17
g2480
sg18
(lp6058
g2398
ag2399
asg24
I00
sg25
Nsg2398
g0
(g26
g2
Ntp6059
Rp6060
(dp6061
g24
I00
sg30
I01
sg31
I00
sg32
g2485
sbsg31
I00
sg2399
g0
(g26
g2
Ntp6062
Rp6063
(dp6064
g24
I00
sg30
I01
sg31
I01
sg32
g5989
sbsg44
g2413
sg46
I110
sg47
g5953
sbsg5954
g0
(g1415
g2
Ntp6065
Rp6066
(dp6067
g17
g2480
sg18
(lp6068
g2398
ag2399
asg24
I00
sg25
Nsg2398
g0
(g26
g2
Ntp6069
Rp6070
(dp6071
g24
I00
sg30
I01
sg31
I00
sg32
g2496
sbsg31
I00
sg2399
g0
(g26
g2
Ntp6072
Rp6073
(dp6074
g24
I00
sg30
I01
sg31
I01
sg32
g5989
sbsg44
g2413
sg46
I138
sg47
g5954
sbsg5964
g0
(g1415
g2
Ntp6075
Rp6076
(dp6077
g17
g3351
sg18
(lp6078
g2398
ag2399
ag3353
ag3354
ag3355
asg24
I00
sg25
Nsg2398
g0
(g26
g2
Ntp6079
Rp6080
(dp6081
g24
I00
sg30
I01
sg31
I00
sg32
g3359
sbsg31
I00
sg2399
g0
(g26
g2
Ntp6082
Rp6083
(dp6084
g24
I00
sg30
I01
sg31
I00
sg32
g43
sbsg3353
g0
(g255
g2
Ntp6085
Rp6086
(dp6087
g24
I00
sg30
I01
sg31
I00
sg32
I00
sbsg3354
g0
(g85
g2
Ntp6088
Rp6089
(dp6090
g24
I00
sg30
I01
sg31
I00
sg89
Vkt6PFJetsSoftElectronTagInfos
p6091
sg91
g43
sg92
g43
sbsg3355
g0
(g85
g2
Ntp6092
Rp6093
(dp6094
g24
I00
sg30
I01
sg31
I00
sg89
Vkt6PFJetsSoftMuonTagInfos
p6095
sg91
g43
sg92
g43
sbsg44
g2413
sg46
I196
sg47
g5964
sbsg5975
g0
(g1415
g2
Ntp6096
Rp6097
(dp6098
g17
g2480
sg18
(lp6099
g2398
ag2399
asg24
I00
sg25
Nsg2398
g0
(g26
g2
Ntp6100
Rp6101
(dp6102
g24
I00
sg30
I01
sg31
I00
sg32
g2507
sbsg31
I00
sg2399
g0
(g26
g2
Ntp6103
Rp6104
(dp6105
g24
I00
sg30
I01
sg31
I01
sg32
g5989
sbsg44
g2413
sg46
I166
sg47
g5975
sbssV_Process__esprefers
p6106
(dp6107
Ves_prefer_hcalHardcode
p6108
g0
(cFWCore.ParameterSet.Modules
ESPrefer
p6109
g2
Ntp6110
Rp6111
(dp6112
g17
g700
sg18
(lp6113
sg24
I00
sg25
Nsg31
I00
sg44
g66
sg46
I91
sV_targetLabel
p6114
g696
sg47
g6108
sbssV_Process__aliases
p6115
(dp6116
sV_Process__psets
p6117
(dp6118
VmaxLuminosityBlocks
p6119
g0
(g201
g2
Ntp6120
Rp6121
(dp6122
g24
I00
sg30
I00
sg31
I00
sg18
(lp6123
Vinput
p6124
asg25
Nsg6124
g0
(g33
g2
Ntp6125
Rp6126
(dp6127
g24
I00
sg30
I00
sg31
I00
sg32
I-1
sbsg47
g6119
sbsVCondDB
p6128
g0
(g201
g2
Ntp6129
Rp6130
(dp6131
g24
I00
sg30
I01
sg31
I00
sg18
(lp6132
g451
ag452
asg25
Nsg451
g0
(g201
g2
Ntp6133
Rp6134
(dp6135
g24
I00
sg30
I01
sg31
I00
sg18
(lp6136
g467
ag468
ag469
ag470
ag471
asg25
Nsg467
g0
(g26
g2
Ntp6137
Rp6138
(dp6139
g24
I00
sg30
I00
sg31
I00
sg32
g43
sbsg468
g0
(g33
g2
Ntp6140
Rp6141
(dp6142
g24
I00
sg30
I00
sg31
I00
sg32
I0
sbsg469
g0
(g26
g2
Ntp6143
Rp6144
(dp6145
g24
I00
sg30
I00
sg31
I00
sg32
g43
sbsg470
g0
(g33
g2
Ntp6146
Rp6147
(dp6148
g24
I00
sg30
I00
sg31
I00
sg32
I0
sbsg471
g0
(g33
g2
Ntp6149
Rp6150
(dp6151
g24
I00
sg30
I00
sg31
I00
sg32
I0
sbsbsg452
g0
(g26
g2
Ntp6152
Rp6153
(dp6154
g24
I00
sg30
I01
sg31
I00
sg32
g43
sbsg47
g6128
sbsg710
g762
sVoptions
p6155
g0
(g201
g2
Ntp6156
Rp6157
(dp6158
g24
I00
sg30
I00
sg31
I01
sg18
(lp6159
VnumberOfThreads
p6160
aVnumberOfStreams
p6161
aVnumberOfConcurrentRuns
p6162
aVnumberOfConcurrentLuminosityBlocks
p6163
aVeventSetup
p6164
aVaccelerators
p6165
aVwantSummary
p6166
aVfileMode
p6167
aVforceEventSetupCacheClearOnNewRun
p6168
aVthrowIfIllegalParameter
p6169
aVprintDependencies
p6170
aVdeleteNonConsumedUnscheduledModules
p6171
aVsizeOfStackForThreadsInKB
p6172
aVRethrow
p6173
aVSkipEvent
p6174
aVFailPath
p6175
aVIgnoreCompletely
p6176
aVcanDeleteEarly
p6177
aVdumpOptions
p6178
aVallowUnscheduled
p6179
aVemptyRunLumiMode
p6180
aVmakeTriggerResults
p6181
asg25
Nsg6160
g0
(g1475
g2
Ntp6182
Rp6183
(dp6184
g24
I00
sg30
I00
sg31
I00
sg32
I1
sbsg6161
g0
(g1475
g2
Ntp6185
Rp6186
(dp6187
g24
I00
sg30
I00
sg31
I00
sg32
I0
sbsg6162
g0
(g1475
g2
Ntp6188
Rp6189
(dp6190
g24
I00
sg30
I00
sg31
I00
sg32
I1
sbsg6163
g0
(g1475
g2
Ntp6191
Rp6192
(dp6193
g24
I00
sg30
I00
sg31
I00
sg32
I0
sbsg6164
g0
(g201
g2
Ntp6194
Rp6195
(dp6196
g24
I00
sg30
I00
sg31
I00
sg18
(lp6197
VnumberOfConcurrentIOVs
p6198
aVforceNumberOfConcurrentIOVs
p6199
asg25
Nsg6198
g0
(g1475
g2
Ntp6200
Rp6201
(dp6202
g24
I00
sg30
I00
sg31
I00
sg32
I0
sbsg6199
g0
(g201
g2
Ntp6203
Rp6204
(dp6205
g24
I00
sg30
I00
sg31
I00
sg18
(lp6206
sg25
g0
(cFWCore.ParameterSet.Types
_RequiredParameter
p6207
g2
Ntp6208
Rp6209
(dp6210
g24
I00
sg30
I00
sg31
I00
sg195
g1475
sg215
Nsbsbsbsg6165
g0
(g58
g59
(lp6211
V*
p6212
atp6213
Rp6214
(dp6215
g24
I00
sg30
I00
sg31
I00
sg65
I1
sbsg6166
g0
(g255
g2
Ntp6216
Rp6217
(dp6218
g24
I00
sg30
I00
sg31
I00
sg32
I01
sbsg6167
g0
(g26
g2
Ntp6219
Rp6220
(dp6221
g24
I00
sg30
I00
sg31
I00
sg32
VFULLMERGE
p6222
sbsg6168
g0
(g255
g2
Ntp6223
Rp6224
(dp6225
g24
I00
sg30
I00
sg31
I00
sg32
I00
sbsg6169
g0
(g255
g2
Ntp6226
Rp6227
(dp6228
g24
I00
sg30
I00
sg31
I00
sg32
I01
sbsg6170
g0
(g255
g2
Ntp6229
Rp6230
(dp6231
g24
I00
sg30
I00
sg31
I00
sg32
I00
sbsg6171
g0
(g255
g2
Ntp6232
Rp6233
(dp6234
g24
I00
sg30
I00
sg31
I00
sg32
I01
sbsg6172
g0
(g191
g2
Ntp6235
Rp6236
(dp6237
g24
I00
sg30
I00
sg31
I00
sg195
g1475
sg215
Nsbsg6173
g0
(g58
g59
(lp6238
tp6239
Rp6240
(dp6241
g24
I00
sg30
I00
sg31
I00
sg65
I1
sbsg6174
g0
(g58
g59
(lp6242
tp6243
Rp6244
(dp6245
g24
I00
sg30
I00
sg31
I00
sg65
I1
sbsg6175
g0
(g58
g59
(lp6246
tp6247
Rp6248
(dp6249
g24
I00
sg30
I00
sg31
I00
sg65
I1
sbsg6176
g0
(g58
g59
(lp6250
tp6251
Rp6252
(dp6253
g24
I00
sg30
I00
sg31
I00
sg65
I1
sbsg6177
g0
(g58
g59
(lp6254
tp6255
Rp6256
(dp6257
g24
I00
sg30
I00
sg31
I00
sg65
I1
sbsg6178
g0
(g255
g2
Ntp6258
Rp6259
(dp6260
g24
I00
sg30
I00
sg31
I00
sg32
I00
sbsg6179
g0
(cFWCore.ParameterSet.Types
_ObsoleteParameter
p6261
g2
Ntp6262
Rp6263
(dp6264
g24
I00
sg30
I00
sg31
I00
sg195
g255
sg215
Nsbsg6180
g0
(g6261
g2
Ntp6265
Rp6266
(dp6267
g24
I00
sg30
I00
sg31
I00
sg195
g26
sg215
Nsbsg6181
g0
(g6261
g2
Ntp6268
Rp6269
(dp6270
g24
I00
sg30
I00
sg31
I00
sg195
g255
sg215
Nsbsg47
g6155
sbsVmaxEvents
p6271
g0
(g201
g2
Ntp6272
Rp6273
(dp6274
g24
I00
sg30
I00
sg31
I01
sg18
(lp6275
g6124
ag395
asg25
Nsg6124
g0
(g33
g2
Ntp6276
Rp6277
(dp6278
g24
I00
sg30
I00
sg31
I00
sg32
I-1
sbsg395
g0
(g191
g2
Ntp6279
Rp6280
(dp6281
g24
I00
sg30
I00
sg31
I00
sg195
g0
(cFWCore.ParameterSet.Types
_AllowedParameterTypes
p6282
g2
Ntp6283
Rp6284
(dp6285
V_AllowedParameterTypes__types
p6286
(g33
g201
tp6287
sV_AllowedParameterTypes__value
p6288
NsV__name__
p6289
Vallowed(cms.int32,cms.PSet)
p6290
sbsg215
Nsbsg47
g6271
sbssV_Process__vpsets
p6291
(dp6292
sV_cloneToObjectDict
p6293
(dp6294
L139807638247792L
g0
(g201
g2
Ntp6295
Rp6296
(dp6297
g24
I00
sg30
I00
sg31
I01
sg18
(lp6298
g6160
ag6161
ag6162
ag6163
ag6164
ag6165
ag6166
ag6167
ag6168
ag6169
ag6170
ag6171
ag6172
ag6173
ag6174
ag6175
ag6176
ag6177
ag6178
ag6179
ag6180
ag6181
asg25
Nsg6160
g0
(g1475
g2
Ntp6299
Rp6300
(dp6301
g24
I00
sg30
I00
sg31
I00
sg32
I1
sbsg6161
g0
(g1475
g2
Ntp6302
Rp6303
(dp6304
g24
I00
sg30
I00
sg31
I00
sg32
I0
sbsg6162
g0
(g1475
g2
Ntp6305
Rp6306
(dp6307
g24
I00
sg30
I00
sg31
I00
sg32
I1
sbsg6163
g0
(g1475
g2
Ntp6308
Rp6309
(dp6310
g24
I00
sg30
I00
sg31
I00
sg32
I0
sbsg6164
g0
(g201
g2
Ntp6311
Rp6312
(dp6313
g24
I00
sg30
I00
sg31
I00
sg18
(lp6314
g6198
ag6199
asg25
Nsg6198
g0
(g1475
g2
Ntp6315
Rp6316
(dp6317
g24
I00
sg30
I00
sg31
I00
sg32
I0
sbsg6199
g0
(g201
g2
Ntp6318
Rp6319
(dp6320
g24
I00
sg30
I00
sg31
I00
sg18
(lp6321
sg25
g0
(g6207
g2
Ntp6322
Rp6323
(dp6324
g24
I00
sg30
I00
sg31
I00
sg195
g1475
sg215
Nsbsbsbsg6165
g0
(g58
g59
(lp6325
g6212
atp6326
Rp6327
(dp6328
g24
I00
sg30
I00
sg31
I00
sg65
I1
sbsg6166
g0
(g255
g2
Ntp6329
Rp6330
(dp6331
g24
I00
sg30
I00
sg31
I00
sg32
I00
sbsg6167
g0
(g26
g2
Ntp6332
Rp6333
(dp6334
g24
I00
sg30
I00
sg31
I00
sg32
g6222
sbsg6168
g0
(g255
g2
Ntp6335
Rp6336
(dp6337
g24
I00
sg30
I00
sg31
I00
sg32
I00
sbsg6169
g0
(g255
g2
Ntp6338
Rp6339
(dp6340
g24
I00
sg30
I00
sg31
I00
sg32
I01
sbsg6170
g0
(g255
g2
Ntp6341
Rp6342
(dp6343
g24
I00
sg30
I00
sg31
I00
sg32
I00
sbsg6171
g0
(g255
g2
Ntp6344
Rp6345
(dp6346
g24
I00
sg30
I00
sg31
I00
sg32
I01
sbsg6172
g0
(g191
g2
Ntp6347
Rp6348
(dp6349
g24
I00
sg30
I00
sg31
I00
sg195
g1475
sg215
Nsbsg6173
g0
(g58
g59
(lp6350
tp6351
Rp6352
(dp6353
g24
I00
sg30
I00
sg31
I00
sg65
I1
sbsg6174
g0
(g58
g59
(lp6354
tp6355
Rp6356
(dp6357
g24
I00
sg30
I00
sg31
I00
sg65
I1
sbsg6175
g0
(g58
g59
(lp6358
tp6359
Rp6360
(dp6361
g24
I00
sg30
I00
sg31
I00
sg65
I1
sbsg6176
g0
(g58
g59
(lp6362
tp6363
Rp6364
(dp6365
g24
I00
sg30
I00
sg31
I00
sg65
I1
sbsg6177
g0
(g58
g59
(lp6366
tp6367
Rp6368
(dp6369
g24
I00
sg30
I00
sg31
I00
sg65
I1
sbsg6178
g0
(g255
g2
Ntp6370
Rp6371
(dp6372
g24
I00
sg30
I00
sg31
I00
sg32
I00
sbsg6179
g0
(g6261
g2
Ntp6373
Rp6374
(dp6375
g24
I00
sg30
I00
sg31
I00
sg195
g255
sg215
Nsbsg6180
g0
(g6261
g2
Ntp6376
Rp6377
(dp6378
g24
I00
sg30
I00
sg31
I00
sg195
g26
sg215
Nsbsg6181
g0
(g6261
g2
Ntp6379
Rp6380
(dp6381
g24
I00
sg30
I00
sg31
I00
sg195
g255
sg215
Nsbsg47
NsbsL139807634291344L
g0
(g201
g2
Ntp6382
Rp6383
(dp6384
g24
I00
sg30
I00
sg31
I01
sg18
(lp6385
g6124
ag395
asg25
Nsg6124
g0
(g191
g2
Ntp6386
Rp6387
(dp6388
g24
I00
sg30
I00
sg31
I00
sg195
g33
sg215
Nsbsg395
g0
(g191
g2
Ntp6389
Rp6390
(dp6391
g24
I00
sg30
I00
sg31
I00
sg195
g0
(g6282
g2
Ntp6392
Rp6393
(dp6394
g6286
(g33
g201
tp6395
sg6288
Nsg6289
Vallowed(cms.int32,cms.PSet)
p6396
sbsg215
Nsbsg47
NsbsL139807634292208L
g6121
sL139807634291776L
g1417
sL139807633899632L
g1427
sL139807640158608L
g1447
sL139807632293696L
g1463
sL139807639852032L
g6130
sL139807635059520L
g1471
sL139807635058800L
g1481
sL139807639854528L
g447
sL139807633954944L
g762
sL139807634156608L
g527
sL139807632377504L
g1489
sL139807632376640L
g1506
sL139807632446512L
g1578
sL139807632447040L
g1643
sL139807632293408L
g698
sL139807632293648L
g6111
sL139807635061632L
g1659
sL139807632379376L
g1674
sL139807632378224L
g1683
sL139807632345360L
g1722
sL139807632343680L
g1765
sL139807632344448L
g1818
sL139807632400448L
g1857
sL139807632293504L
g1963
sL139807632346848L
g1969
sL139807632449056L
g1986
sL139807632526928L
g2030
sL139807632525920L
g2047
sL139807631776016L
g2052
sL139807631776640L
g2060
sL139807631811008L
g2065
sL139807632492768L
g2073
sL139807631775200L
g2110
sL139807632526448L
g2118
sL139807631774624L
g2123
sL139807631774912L
g2131
sL139807631777408L
g2139
sL139807632494544L
g2149
sL139807631775968L
g2154
sL139807632526880L
g2159
sL139807632524768L
g2167
sL139807632449296L
g2172
sL139807632523664L
g2183
sL139807632378896L
g2192
sL139807631810720L
g2201
sL139807631811584L
g1392
sL139807631813792L
g2209
sL139807631812448L
g2220
sL139807631812256L
g2229
sL139807631777024L
g2238
sL139807631814224L
g2255
sL139807631811824L
g2292
sL139807631812784L
g2322
sL139807632525824L
g2341
sL139807632494256L
g2353
sL139807632493344L
g2370
sL139807632524192L
g2385
sL139807631879760L
g15
sL139807631879616L
g159
sL139807640161056L
g6157
sL139807631907712L
g6273
sL139807631645904L
g2394
sL139807631299632L
g2416
sL139807631279152L
g2430
sL139807631622048L
g2439
sL139807631748400L
g2461
sL139807631248016L
g2470
sL139807631676800L
g2478
sL139807631701712L
g2490
sL139807631726624L
g2501
sL139807631646384L
g2513
sL139807631299536L
g2528
sL139807631279056L
g2540
sL139807631621472L
g2549
sL139807631748304L
g2566
sL139807631247920L
g2575
sL139807631676416L
g2583
sL139807631701376L
g2593
sL139807631726288L
g2603
sL139807631632848L
g2614
sL139807631281648L
g2629
sL139807631248880L
g2641
sL139807631539456L
g2650
sL139807631746864L
g2667
sL139807631246480L
g2676
sL139807631658672L
g2684
sL139807631675744L
g2694
sL139807631717040L
g2704
sL139807631632224L
g2715
sL139807631281552L
g2730
sL139807631248784L
g2742
sL139807631538832L
g2751
sL139807631746768L
g2768
sL139807631246384L
g2777
sL139807631658960L
g2785
sL139807631679152L
g2795
sL139807631700320L
g2805
sL139807631633712L
g2816
sL139807631281840L
g2831
sL139807631249072L
g2843
sL139807631539504L
g2852
sL139807631747056L
g2869
sL139807631246672L
g2878
sL139807631663792L
g2886
sL139807631688704L
g2896
sL139807631717760L
g2906
sL139807631633280L
g2917
sL139807631281744L
g2932
sL139807631248976L
g2944
sL139807631540080L
g2953
sL139807631746960L
g2970
sL139807631246576L
g2979
sL139807631658048L
g2987
sL139807631688368L
g2997
sL139807631717376L
g3007
sL139807631634240L
g3018
sL139807631282032L
g3033
sL139807631249264L
g3045
sL139807631540176L
g3054
sL139807631747248L
g3071
sL139807631246864L
g3080
sL139807631664512L
g3088
sL139807631689424L
g3098
sL139807631718432L
g3108
sL139807631634144L
g3119
sL139807631281936L
g3134
sL139807631249168L
g3146
sL139807631540128L
g3155
sL139807631747152L
g3172
sL139807631246768L
g3181
sL139807631664128L
g3189
sL139807631689088L
g3199
sL139807631718096L
g3209
sL139807631920048L
g3220
sL139807631920192L
g3233
sL139807631920528L
g3243
sL139807631997728L
g3252
sL139807631919232L
g3268
sL139807631919616L
g3278
sL139807631995376L
g3286
sL139807631918368L
g3303
sL139807631920960L
g3312
sL139807631918848L
g3321
sL139807631515808L
g3329
sL139807631517296L
g3339
sL139807631917744L
g3349
sL139807631518880L
g3375
sL139807631920000L
g3386
sL139807631920816L
g3398
sL139807631919520L
g3408
sL139807631919904L
g3418
sL139807631996864L
g3427
sL139807631918656L
g3445
sL139807631919136L
g3454
sL139807631515952L
g3462
sL139807631517536L
g3472
sL139807631519120L
g3482
sL139807631998640L
g3492
sL139807631997440L
g3508
sL139807631918320L
g3522
sL139807631920720L
g3534
sL139807631998304L
g3543
sL139807631919424L
g3558
sL139807631919808L
g3568
sL139807631995664L
g3576
sL139807631918560L
g3593
sL139807631919040L
g3602
sL139807631516000L
g3610
sL139807631517584L
g3620
sL139807631519168L
g3630
sL139807631918224L
g3641
sL139807631921104L
g3653
sL139807631920624L
g3663
sL139807631998016L
g3672
sL139807631919328L
g3687
sL139807631919712L
g3697
sL139807631995424L
g3705
sL139807631918464L
g3722
sL139807631920480L
g3731
sL139807631918944L
g3740
sL139807631515760L
g3748
sL139807631517392L
g3758
sL139807631918176L
g3768
sL139807631518976L
g3789
sL139807631280544L
g3800
sL139807631918752L
g3811
sL139807631516336L
g3819
sL139807631517920L
g3830
sL139807631633760L
g3841
sL139807631280832L
g3856
sL139807631245520L
g3868
sL139807631612896L
g3877
sL139807631747440L
g3894
sL139807631247056L
g3903
sL139807631665184L
g3911
sL139807631690096L
g3921
sL139807631719104L
g3931
sL139807631634192L
g3942
sL139807631281120L
g3957
sL139807631245568L
g3969
sL139807631612272L
g3978
sL139807631747344L
g3995
sL139807631246960L
g4004
sL139807631664848L
g4012
sL139807631689760L
g4022
sL139807631718768L
g4032
sL139807631644560L
g4043
sL139807631298864L
g4058
sL139807631278384L
g4070
sL139807631612944L
g4079
sL139807631747632L
g4096
sL139807631247248L
g4105
sL139807631665856L
g4113
sL139807631690768L
g4123
sL139807631719776L
g4133
sL139807631644128L
g4144
sL139807631298768L
g4159
sL139807631278192L
g4171
sL139807631613520L
g4180
sL139807631747536L
g4197
sL139807631247152L
g4206
sL139807631665520L
g4214
sL139807631690432L
g4224
sL139807631719440L
g4234
sL139807631279680L
g4245
sL139807631300880L
g4256
sL139807631281168L
g4267
sL139807631630096L
g4277
sL139807631748880L
g4292
sL139807631248400L
g4301
sL139807631908432L
g4309
sL139807631745184L
g4326
sL139807631300160L
g4335
sL139807631246000L
g4344
sL139807631658000L
g4352
sL139807631678144L
g4362
sL139807631728592L
g4372
sL139807631703056L
g4393
sL139807631279632L
g4404
sL139807631300016L
g4416
sL139807631245904L
g4426
sL139807631279536L
g4436
sL139807631748784L
g4445
sL139807631632032L
g4453
sL139807631629904L
g4467
sL139807631279968L
g4481
sL139807631645424L
g4492
sL139807631299056L
g4507
sL139807631278576L
g4517
sL139807631613616L
g4526
sL139807631747824L
g4543
sL139807631247440L
g4552
sL139807631666528L
g4560
sL139807631691728L
g4570
sL139807631720112L
g4580
sL139807631279824L
g4591
sL139807631301456L
g4602
sL139807631644992L
g4612
sL139807631298960L
g4627
sL139807631245424L
g4637
sL139807631278480L
g4647
sL139807631613568L
g4655
sL139807631747728L
g4672
sL139807631300304L
g4681
sL139807631247344L
g4690
sL139807631666192L
g4698
sL139807631691104L
g4708
sL139807631739536L
g4718
sL139807631720400L
g4739
sL139807631646288L
g4750
sL139807631299248L
g4765
sL139807631278768L
g4777
sL139807631620800L
g4786
sL139807631748016L
g4803
sL139807631247632L
g4812
sL139807631666864L
g4820
sL139807631688032L
g4830
sL139807631725232L
g4840
sL139807631645856L
g4851
sL139807631299152L
g4866
sL139807631278672L
g4878
sL139807631620176L
g4887
sL139807631747920L
g4904
sL139807631247536L
g4913
sL139807631667152L
g4921
sL139807631691440L
g4931
sL139807631716704L
g4941
sL139807631646336L
g4952
sL139807631299440L
g4967
sL139807631278960L
g4979
sL139807631620848L
g4988
sL139807631748208L
g5005
sL139807631247824L
g5014
sL139807631676080L
g5022
sL139807631700992L
g5032
sL139807631725952L
g5042
sL139807631646672L
g5053
sL139807631299344L
g5068
sL139807631278864L
g5080
sL139807631621424L
g5089
sL139807631748112L
g5106
sL139807631247728L
g5115
sL139807631663456L
g5123
sL139807631700656L
g5133
sL139807631725568L
g5143
sL139807631278336L
g5154
sL139807631301312L
g5165
sL139807631281456L
g5176
sL139807631630192L
g5186
sL139807631745856L
g5201
sL139807631248688L
g5210
sL139807631907664L
g5218
sL139807631746672L
g5235
sL139807631298672L
g5244
sL139807631246288L
g5253
sL139807631658336L
g5261
sL139807631679440L
g5271
sL139807631738864L
g5281
sL139807631703728L
g5302
sL139807631280400L
g5313
sL139807631301888L
g5324
sL139807631299920L
g5334
sL139807631657568L
g5344
sL139807631245808L
g5359
sL139807631279440L
g5369
sL139807631629328L
g5377
sL139807631748688L
g5394
sL139807631300736L
g5403
sL139807631248304L
g5412
sL139807631677808L
g5420
sL139807631702720L
g5430
sL139807631745808L
g5440
sL139807631727632L
g5461
sL139807631278288L
g5472
sL139807631301024L
g5483
sL139807631281264L
g5494
sL139807631630288L
g5504
sL139807631748976L
g5519
sL139807631248496L
g5528
sL139807631907760L
g5536
sL139807631745136L
g5553
sL139807631298720L
g5562
sL139807631246096L
g5571
sL139807631658096L
g5579
sL139807631678480L
g5589
sL139807631737520L
g5599
sL139807631703392L
g5620
sL139807631280112L
g5631
sL139807631301600L
g5642
sL139807631299728L
g5652
sL139807631656704L
g5662
sL139807631245616L
g5677
sL139807631279248L
g5687
sL139807631622096L
g5695
sL139807631748496L
g5712
sL139807631300448L
g5721
sL139807631248112L
g5730
sL139807631677136L
g5738
sL139807631702048L
g5748
sL139807631740208L
g5758
sL139807631726960L
g5779
sL139807631278240L
g5790
sL139807631301168L
g5801
sL139807631281360L
g5812
sL139807631630144L
g5822
sL139807631745712L
g5837
sL139807631248592L
g5846
sL139807631908144L
g5854
sL139807631746576L
g5871
sL139807631298624L
g5880
sL139807631246192L
g5889
sL139807631657616L
g5897
sL139807631678816L
g5907
sL139807631738192L
g5917
sL139807631704016L
g5938
sL139807631280256L
g5949
sL139807631301744L
g5960
sL139807631299824L
g5970
sL139807631657136L
g5980
sL139807631245712L
g5995
sL139807631279344L
g6005
sL139807631628704L
g6013
sL139807631748592L
g6030
sL139807631300592L
g6039
sL139807631248208L
g6048
sL139807631677472L
g6056
sL139807631702384L
g6066
sL139807631739680L
g6076
sL139807631727296L
g6097
sL139807631302512L
g76
sL139807631302608L
g119
ssV_Process__InExtendCall
p6397
I00
sV_Process__partialschedules
p6398
(dp6399
sV_Process__isStrict
p6400
I00
sV_Process__modifiers
p6401
(tsV_Process__accelerators
p6402
(dp6403
sg6119
g6121
sg176
g179
sg1414
g1417
sg1425
g1427
sg1445
g1447
sg1461
g1463
sg6128
g6130
sg1469
g1471
sg1479
g1481
sg444
g447
sg710
g762
sg525
g527
sg1487
g1489
sg1504
g1506
sg1576
g1578
sg1641
g1643
sg696
g698
sg6108
g6111
sg1657
g1659
sg1672
g1674
sg1681
g1683
sg1720
g1722
sg1763
g1765
sg1816
g1818
sg1855
g1857
sg1961
g1963
sg1967
g1969
sg1984
g1986
sg2028
g2030
sg2045
g2047
sg2050
g2052
sg2058
g2060
sg2063
g2065
sg2071
g2073
sg2108
g2110
sg2116
g2118
sg2121
g2123
sg2129
g2131
sg2137
g2139
sg2147
g2149
sg2152
g2154
sg2157
g2159
sg2165
g2167
sg2170
g2172
sg2181
g2183
sg2190
g2192
sg2199
g2201
sg1390
g1392
sg2207
g2209
sg2218
g2220
sg2227
g2229
sg2236
g2238
sg2253
g2255
sg2290
g2292
sg2320
g2322
sg2339
g2341
sg2351
g2353
sg2368
g2370
sg2383
g2385
sg427
g429
sg12
g15
sg156
g159
sg6155
g6157
sg6271
g6273
sg2392
g2394
sg2414
g2416
sg2428
g2430
sg2434
g2439
sg2459
g2461
sg2468
g2470
sg2422
g2478
sg2423
g2490
sg2424
g2501
sg2511
g2513
sg2526
g2528
sg2538
g2540
sg2544
g2549
sg2564
g2566
sg2573
g2575
sg2532
g2583
sg2533
g2593
sg2534
g2603
sg2612
g2614
sg2627
g2629
sg2639
g2641
sg2645
g2650
sg2665
g2667
sg2674
g2676
sg2633
g2684
sg2634
g2694
sg2635
g2704
sg2713
g2715
sg2728
g2730
sg2740
g2742
sg2746
g2751
sg2766
g2768
sg2775
g2777
sg2734
g2785
sg2735
g2795
sg2736
g2805
sg2814
g2816
sg2829
g2831
sg2841
g2843
sg2847
g2852
sg2867
g2869
sg2876
g2878
sg2835
g2886
sg2836
g2896
sg2837
g2906
sg2915
g2917
sg2930
g2932
sg2942
g2944
sg2948
g2953
sg2968
g2970
sg2977
g2979
sg2936
g2987
sg2937
g2997
sg2938
g3007
sg3016
g3018
sg3031
g3033
sg3043
g3045
sg3049
g3054
sg3069
g3071
sg3078
g3080
sg3037
g3088
sg3038
g3098
sg3039
g3108
sg3117
g3119
sg3132
g3134
sg3144
g3146
sg3150
g3155
sg3170
g3172
sg3179
g3181
sg3138
g3189
sg3139
g3199
sg3140
g3209
sg3218
g3220
sg3231
g3233
sg3241
g3243
sg3224
g3252
sg3266
g3268
sg3276
g3278
sg3272
g3286
sg3301
g3303
sg3310
g3312
sg3319
g3321
sg3225
g3329
sg3226
g3339
sg3237
g3349
sg3247
g3375
sg3384
g3386
sg3396
g3398
sg3406
g3408
sg3416
g3418
sg3425
g3427
sg3443
g3445
sg3452
g3454
sg3391
g3462
sg3392
g3472
sg3402
g3482
sg3390
g3492
sg3412
g3508
sg3520
g3522
sg3532
g3534
sg3526
g3543
sg3556
g3558
sg3566
g3568
sg3562
g3576
sg3591
g3593
sg3600
g3602
sg3527
g3610
sg3528
g3620
sg3538
g3630
sg3639
g3641
sg3651
g3653
sg3661
g3663
sg3645
g3672
sg3685
g3687
sg3695
g3697
sg3691
g3705
sg3720
g3722
sg3729
g3731
sg3738
g3740
sg3646
g3748
sg3647
g3758
sg3657
g3768
sg3667
g3789
sg3798
g3800
sg3809
g3811
sg3804
g3819
sg3805
g3830
sg3839
g3841
sg3854
g3856
sg3866
g3868
sg3872
g3877
sg3892
g3894
sg3901
g3903
sg3860
g3911
sg3861
g3921
sg3862
g3931
sg3940
g3942
sg3955
g3957
sg3967
g3969
sg3973
g3978
sg3993
g3995
sg4002
g4004
sg3961
g4012
sg3962
g4022
sg3963
g4032
sg4041
g4043
sg4056
g4058
sg4068
g4070
sg4074
g4079
sg4094
g4096
sg4103
g4105
sg4062
g4113
sg4063
g4123
sg4064
g4133
sg4142
g4144
sg4157
g4159
sg4169
g4171
sg4175
g4180
sg4195
g4197
sg4204
g4206
sg4163
g4214
sg4164
g4224
sg4165
g4234
sg4243
g4245
sg4254
g4256
sg4265
g4267
sg4271
g4277
sg4290
g4292
sg4299
g4301
sg4260
g4309
sg4324
g4326
sg4333
g4335
sg4342
g4344
sg4249
g4352
sg4250
g4362
sg4261
g4372
sg4272
g4393
sg4402
g4404
sg4414
g4416
sg4424
g4426
sg4434
g4436
sg4443
g4445
sg4408
g4453
sg4430
g4467
sg4479
g4481
sg4490
g4492
sg4505
g4507
sg4515
g4517
sg4521
g4526
sg4541
g4543
sg4550
g4552
sg4485
g4560
sg4486
g4570
sg4511
g4580
sg4589
g4591
sg4600
g4602
sg4610
g4612
sg4625
g4627
sg4635
g4637
sg4645
g4647
sg4641
g4655
sg4670
g4672
sg4679
g4681
sg4688
g4690
sg4595
g4698
sg4596
g4708
sg4606
g4718
sg4631
g4739
sg4748
g4750
sg4763
g4765
sg4775
g4777
sg4781
g4786
sg4801
g4803
sg4810
g4812
sg4769
g4820
sg4770
g4830
sg4771
g4840
sg4849
g4851
sg4864
g4866
sg4876
g4878
sg4882
g4887
sg4902
g4904
sg4911
g4913
sg4870
g4921
sg4871
g4931
sg4872
g4941
sg4950
g4952
sg4965
g4967
sg4977
g4979
sg4983
g4988
sg5003
g5005
sg5012
g5014
sg4971
g5022
sg4972
g5032
sg4973
g5042
sg5051
g5053
sg5066
g5068
sg5078
g5080
sg5084
g5089
sg5104
g5106
sg5113
g5115
sg5072
g5123
sg5073
g5133
sg5074
g5143
sg5152
g5154
sg5163
g5165
sg5174
g5176
sg5180
g5186
sg5199
g5201
sg5208
g5210
sg5169
g5218
sg5233
g5235
sg5242
g5244
sg5251
g5253
sg5158
g5261
sg5159
g5271
sg5170
g5281
sg5181
g5302
sg5311
g5313
sg5322
g5324
sg5332
g5334
sg5338
g5344
sg5357
g5359
sg5367
g5369
sg5363
g5377
sg5392
g5394
sg5401
g5403
sg5410
g5412
sg5317
g5420
sg5318
g5430
sg5328
g5440
sg5339
g5461
sg5470
g5472
sg5481
g5483
sg5492
g5494
sg5498
g5504
sg5517
g5519
sg5526
g5528
sg5487
g5536
sg5551
g5553
sg5560
g5562
sg5569
g5571
sg5476
g5579
sg5477
g5589
sg5488
g5599
sg5499
g5620
sg5629
g5631
sg5640
g5642
sg5650
g5652
sg5656
g5662
sg5675
g5677
sg5685
g5687
sg5681
g5695
sg5710
g5712
sg5719
g5721
sg5728
g5730
sg5635
g5738
sg5636
g5748
sg5646
g5758
sg5657
g5779
sg5788
g5790
sg5799
g5801
sg5810
g5812
sg5816
g5822
sg5835
g5837
sg5844
g5846
sg5805
g5854
sg5869
g5871
sg5878
g5880
sg5887
g5889
sg5794
g5897
sg5795
g5907
sg5806
g5917
sg5817
g5938
sg5947
g5949
sg5958
g5960
sg5968
g5970
sg5974
g5980
sg5993
g5995
sg6003
g6005
sg5999
g6013
sg6028
g6030
sg6037
g6039
sg6046
g6048
sg5953
g6056
sg5954
g6066
sg5964
g6076
sg5975
g6097
sVsource
p6404
g53
sg55
g53
sg432
g434
sg73
g76
sg116
g119
sb.