(dp0
VServer
p1
Vcmsweb.cern.ch
p2
sVPort
p3
V
p4
sVRequestName
p5
V220803_162508:jodedra_crab__ParkingSingleMuon0_Run2022C-PromptReco-v1_MINIAODBPeak
p6
sVvoRole
p7
VNULL
p8
sVvoGroup
p9
g4
sVinstance
p10
Vprod
p11
sVOriginalConfig
p12
ccopy_reg
_reconstructor
p13
(cWMCore.Configuration
Configuration
p14
c__builtin__
object
p15
Ntp16
Rp17
(dp18
V_internal_sections
p19
(lp20
VGeneral
p21
aVJobType
p22
aVData
p23
aVSite
p24
aVUser
p25
aVDebug
p26
asg21
g13
(cWMCore.Configuration
ConfigSection
p27
g15
Ntp28
Rp29
(dp30
V_internal_documentation
p31
g4
sV_internal_name
p32
g21
sV_internal_settings
p33
c__builtin__
set
p34
((lp35
VtransferOutputs
p36
aVworkArea
p37
aVtransferLogs
p38
aVrequestName
p39
atp40
Rp41
sV_internal_docstrings
p42
(dp43
sV_internal_children
p44
g34
((lp45
tp46
Rp47
sV_internal_parent_ref
p48
NsV_internal_skipChecks
p49
I00
sg39
V_ParkingSingleMuon0_Run2022C-PromptReco-v1_MINIAODBPeak
p50
sg38
I01
sg36
I01
sg37
Vcrab_20220802/ParkingSingleMu
p51
sbsg22
g13
(g27
g15
Ntp52
Rp53
(dp54
g31
g4
sg32
g22
sg33
g34
((lp55
VpsetName
p56
aVnumCores
p57
aVmaxMemoryMB
p58
aVpluginName
p59
atp60
Rp61
sg42
(dp62
sg44
g34
((lp63
tp64
Rp65
sg48
Nsg49
I00
sg59
VAnalysis
p66
sg56
Vnanoanalyzercrab_cfg_22_SingleMu.py
p67
sg58
I4000
sg57
I1
sbsg23
g13
(g27
g15
Ntp68
Rp69
(dp70
g31
g4
sg32
g23
sg33
g34
((lp71
VinputDBS
p72
aVoutLFNDirBase
p73
aVpublication
p74
aVsplitting
p75
aVoutputDatasetTag
p76
aVunitsPerJob
p77
aVinputDataset
p78
atp79
Rp80
sg42
(dp81
sg44
g34
((lp82
tp83
Rp84
sg48
Nsg49
I00
sg78
V/ParkingSingleMuon0/Run2022C-PromptReco-v1/MINIAOD
p85
sg72
Vglobal
p86
sg75
VFileBased
p87
sg77
I2
sg73
V/store/user/jodedra/Run3/ParkingSingleMuon/
p88
sg74
I01
sg76
VSUMMER22
p89
sbsg24
g13
(g27
g15
Ntp90
Rp91
(dp92
g31
g4
sg32
g24
sg33
g34
((lp93
VstorageSite
p94
atp95
Rp96
sg42
(dp97
sg44
g34
((lp98
tp99
Rp100
sg48
Nsg49
I00
sg94
VT3_CH_CERNBOX
p101
sbsg25
g13
(g27
g15
Ntp102
Rp103
(dp104
g31
g4
sg32
g25
sg33
g34
((lp105
tp106
Rp107
sg42
(dp108
sg44
g34
((lp109
tp110
Rp111
sg48
Nsg49
I00
sbsg26
g13
(g27
g15
Ntp112
Rp113
(dp114
g31
g4
sg32
g26
sg33
g34
((lp115
tp116
Rp117
sg42
(dp118
sg44
g34
((lp119
tp120
Rp121
sg48
Nsg49
I00
sbsbs.